   1               		.file	"action_util.c"
   2               	__SP_H__ = 0x3e
   3               	__SP_L__ = 0x3d
   4               	__SREG__ = 0x3f
   5               	__tmp_reg__ = 0
   6               	__zero_reg__ = 1
   7               		.text
   8               	.Ltext0:
   9               		.cfi_sections	.debug_frame
  10               		.section	.text.get_oneshot_locked_mods,"ax",@progbits
  11               	.global	get_oneshot_locked_mods
  13               	get_oneshot_locked_mods:
  14               	.LFB107:
  15               		.file 1 "./tmk_core/common/action_util.c"
   1:./tmk_core/common/action_util.c **** /*
   2:./tmk_core/common/action_util.c **** Copyright 2013 Jun Wako <wakojun@gmail.com>
   3:./tmk_core/common/action_util.c **** 
   4:./tmk_core/common/action_util.c **** This program is free software: you can redistribute it and/or modify
   5:./tmk_core/common/action_util.c **** it under the terms of the GNU General Public License as published by
   6:./tmk_core/common/action_util.c **** the Free Software Foundation, either version 2 of the License, or
   7:./tmk_core/common/action_util.c **** (at your option) any later version.
   8:./tmk_core/common/action_util.c **** 
   9:./tmk_core/common/action_util.c **** This program is distributed in the hope that it will be useful,
  10:./tmk_core/common/action_util.c **** but WITHOUT ANY WARRANTY; without even the implied warranty of
  11:./tmk_core/common/action_util.c **** MERCHANTABILITY or FITNESS FOR A PARTICULAR PURPOSE.  See the
  12:./tmk_core/common/action_util.c **** GNU General Public License for more details.
  13:./tmk_core/common/action_util.c **** 
  14:./tmk_core/common/action_util.c **** You should have received a copy of the GNU General Public License
  15:./tmk_core/common/action_util.c **** along with this program.  If not, see <http://www.gnu.org/licenses/>.
  16:./tmk_core/common/action_util.c **** */
  17:./tmk_core/common/action_util.c **** #include "host.h"
  18:./tmk_core/common/action_util.c **** #include "report.h"
  19:./tmk_core/common/action_util.c **** #include "debug.h"
  20:./tmk_core/common/action_util.c **** #include "action_util.h"
  21:./tmk_core/common/action_util.c **** #include "action_layer.h"
  22:./tmk_core/common/action_util.c **** #include "timer.h"
  23:./tmk_core/common/action_util.c **** #include "keycode_config.h"
  24:./tmk_core/common/action_util.c **** 
  25:./tmk_core/common/action_util.c **** extern keymap_config_t keymap_config;
  26:./tmk_core/common/action_util.c **** 
  27:./tmk_core/common/action_util.c **** 
  28:./tmk_core/common/action_util.c **** static inline void add_key_byte(uint8_t code);
  29:./tmk_core/common/action_util.c **** static inline void del_key_byte(uint8_t code);
  30:./tmk_core/common/action_util.c **** #ifdef NKRO_ENABLE
  31:./tmk_core/common/action_util.c **** static inline void add_key_bit(uint8_t code);
  32:./tmk_core/common/action_util.c **** static inline void del_key_bit(uint8_t code);
  33:./tmk_core/common/action_util.c **** #endif
  34:./tmk_core/common/action_util.c **** 
  35:./tmk_core/common/action_util.c **** static uint8_t real_mods = 0;
  36:./tmk_core/common/action_util.c **** static uint8_t weak_mods = 0;
  37:./tmk_core/common/action_util.c **** static uint8_t macro_mods = 0;
  38:./tmk_core/common/action_util.c **** 
  39:./tmk_core/common/action_util.c **** #ifdef USB_6KRO_ENABLE
  40:./tmk_core/common/action_util.c **** #define RO_ADD(a, b) ((a + b) % KEYBOARD_REPORT_KEYS)
  41:./tmk_core/common/action_util.c **** #define RO_SUB(a, b) ((a - b + KEYBOARD_REPORT_KEYS) % KEYBOARD_REPORT_KEYS)
  42:./tmk_core/common/action_util.c **** #define RO_INC(a) RO_ADD(a, 1)
  43:./tmk_core/common/action_util.c **** #define RO_DEC(a) RO_SUB(a, 1)
  44:./tmk_core/common/action_util.c **** static int8_t cb_head = 0;
  45:./tmk_core/common/action_util.c **** static int8_t cb_tail = 0;
  46:./tmk_core/common/action_util.c **** static int8_t cb_count = 0;
  47:./tmk_core/common/action_util.c **** #endif
  48:./tmk_core/common/action_util.c **** 
  49:./tmk_core/common/action_util.c **** // TODO: pointer variable is not needed
  50:./tmk_core/common/action_util.c **** //report_keyboard_t keyboard_report = {};
  51:./tmk_core/common/action_util.c **** report_keyboard_t *keyboard_report = &(report_keyboard_t){};
  52:./tmk_core/common/action_util.c **** 
  53:./tmk_core/common/action_util.c **** #ifndef NO_ACTION_ONESHOT
  54:./tmk_core/common/action_util.c **** static int8_t oneshot_mods = 0;
  55:./tmk_core/common/action_util.c **** static int8_t oneshot_locked_mods = 0;
  56:./tmk_core/common/action_util.c **** int8_t get_oneshot_locked_mods(void) { return oneshot_locked_mods; }
  16               		.loc 1 56 38 view -0
  17               		.cfi_startproc
  18               	/* prologue: function */
  19               	/* frame size = 0 */
  20               	/* stack size = 0 */
  21               	.L__stack_usage = 0
  22               		.loc 1 56 40 view .LVU1
  23               		.loc 1 56 1 is_stmt 0 view .LVU2
  24 0000 8091 0000 		lds r24,oneshot_locked_mods
  25               	/* epilogue start */
  26 0004 0895      		ret
  27               		.cfi_endproc
  28               	.LFE107:
  30               		.section	.text.set_oneshot_locked_mods,"ax",@progbits
  31               	.global	set_oneshot_locked_mods
  33               	set_oneshot_locked_mods:
  34               	.LVL0:
  35               	.LFB108:
  57:./tmk_core/common/action_util.c **** void set_oneshot_locked_mods(int8_t mods) { oneshot_locked_mods = mods; }
  36               		.loc 1 57 43 is_stmt 1 view -0
  37               		.cfi_startproc
  38               	/* prologue: function */
  39               	/* frame size = 0 */
  40               	/* stack size = 0 */
  41               	.L__stack_usage = 0
  42               		.loc 1 57 45 view .LVU4
  43               		.loc 1 57 65 is_stmt 0 view .LVU5
  44 0000 8093 0000 		sts oneshot_locked_mods,r24
  45               	/* epilogue start */
  46               		.loc 1 57 1 view .LVU6
  47 0004 0895      		ret
  48               		.cfi_endproc
  49               	.LFE108:
  51               		.section	.text.clear_oneshot_locked_mods,"ax",@progbits
  52               	.global	clear_oneshot_locked_mods
  54               	clear_oneshot_locked_mods:
  55               	.LFB109:
  58:./tmk_core/common/action_util.c **** void clear_oneshot_locked_mods(void) { oneshot_locked_mods = 0; }
  56               		.loc 1 58 38 is_stmt 1 view -0
  57               		.cfi_startproc
  58               	/* prologue: function */
  59               	/* frame size = 0 */
  60               	/* stack size = 0 */
  61               	.L__stack_usage = 0
  62               		.loc 1 58 40 view .LVU8
  63               		.loc 1 58 60 is_stmt 0 view .LVU9
  64 0000 1092 0000 		sts oneshot_locked_mods,__zero_reg__
  65               	/* epilogue start */
  66               		.loc 1 58 1 view .LVU10
  67 0004 0895      		ret
  68               		.cfi_endproc
  69               	.LFE109:
  71               		.section	.text.get_oneshot_layer,"ax",@progbits
  72               	.global	get_oneshot_layer
  74               	get_oneshot_layer:
  75               	.LFB110:
  59:./tmk_core/common/action_util.c **** #if (defined(ONESHOT_TIMEOUT) && (ONESHOT_TIMEOUT > 0))
  60:./tmk_core/common/action_util.c **** static int16_t oneshot_time = 0;
  61:./tmk_core/common/action_util.c **** inline bool has_oneshot_mods_timed_out() {
  62:./tmk_core/common/action_util.c ****   return TIMER_DIFF_16(timer_read(), oneshot_time) >= ONESHOT_TIMEOUT;
  63:./tmk_core/common/action_util.c **** }
  64:./tmk_core/common/action_util.c **** #endif
  65:./tmk_core/common/action_util.c **** #endif
  66:./tmk_core/common/action_util.c **** 
  67:./tmk_core/common/action_util.c **** /* oneshot layer */
  68:./tmk_core/common/action_util.c **** #ifndef NO_ACTION_ONESHOT
  69:./tmk_core/common/action_util.c **** /* oneshot_layer_data bits
  70:./tmk_core/common/action_util.c **** * LLLL LSSS
  71:./tmk_core/common/action_util.c **** * where:
  72:./tmk_core/common/action_util.c **** *   L => are layer bits
  73:./tmk_core/common/action_util.c **** *   S => oneshot state bits
  74:./tmk_core/common/action_util.c **** */
  75:./tmk_core/common/action_util.c **** static int8_t oneshot_layer_data = 0;
  76:./tmk_core/common/action_util.c **** 
  77:./tmk_core/common/action_util.c **** inline uint8_t get_oneshot_layer(void) { return oneshot_layer_data >> 3; }
  76               		.loc 1 77 40 is_stmt 1 view -0
  77               		.cfi_startproc
  78               	/* prologue: function */
  79               	/* frame size = 0 */
  80               	/* stack size = 0 */
  81               	.L__stack_usage = 0
  82               		.loc 1 77 42 view .LVU12
  83               		.loc 1 77 68 is_stmt 0 view .LVU13
  84 0000 8091 0000 		lds r24,oneshot_layer_data
  85               		.loc 1 77 1 view .LVU14
  86 0004 8595      		asr r24
  87 0006 8595      		asr r24
  88 0008 8595      		asr r24
  89               	/* epilogue start */
  90 000a 0895      		ret
  91               		.cfi_endproc
  92               	.LFE110:
  94               		.section	.text.get_oneshot_layer_state,"ax",@progbits
  95               	.global	get_oneshot_layer_state
  97               	get_oneshot_layer_state:
  98               	.LFB111:
  78:./tmk_core/common/action_util.c **** inline uint8_t get_oneshot_layer_state(void) { return oneshot_layer_data & 0b111; }
  99               		.loc 1 78 46 is_stmt 1 view -0
 100               		.cfi_startproc
 101               	/* prologue: function */
 102               	/* frame size = 0 */
 103               	/* stack size = 0 */
 104               	.L__stack_usage = 0
 105               		.loc 1 78 48 view .LVU16
 106               		.loc 1 78 74 is_stmt 0 view .LVU17
 107 0000 8091 0000 		lds r24,oneshot_layer_data
 108               		.loc 1 78 1 view .LVU18
 109 0004 8770      		andi r24,lo8(7)
 110               	/* epilogue start */
 111 0006 0895      		ret
 112               		.cfi_endproc
 113               	.LFE111:
 115               		.section	.text.set_oneshot_layer,"ax",@progbits
 116               	.global	set_oneshot_layer
 118               	set_oneshot_layer:
 119               	.LVL1:
 120               	.LFB112:
  79:./tmk_core/common/action_util.c **** 
  80:./tmk_core/common/action_util.c **** #if (defined(ONESHOT_TIMEOUT) && (ONESHOT_TIMEOUT > 0))
  81:./tmk_core/common/action_util.c **** static int16_t oneshot_layer_time = 0;
  82:./tmk_core/common/action_util.c **** inline bool has_oneshot_layer_timed_out() {
  83:./tmk_core/common/action_util.c ****     return TIMER_DIFF_16(timer_read(), oneshot_layer_time) >= ONESHOT_TIMEOUT &&
  84:./tmk_core/common/action_util.c ****         !(get_oneshot_layer_state() & ONESHOT_TOGGLED);
  85:./tmk_core/common/action_util.c **** }
  86:./tmk_core/common/action_util.c **** #endif
  87:./tmk_core/common/action_util.c **** 
  88:./tmk_core/common/action_util.c **** /* Oneshot layer */
  89:./tmk_core/common/action_util.c **** void set_oneshot_layer(uint8_t layer, uint8_t state)
  90:./tmk_core/common/action_util.c **** {
 121               		.loc 1 90 1 is_stmt 1 view -0
 122               		.cfi_startproc
 123               	/* prologue: function */
 124               	/* frame size = 0 */
 125               	/* stack size = 0 */
 126               	.L__stack_usage = 0
  91:./tmk_core/common/action_util.c ****     oneshot_layer_data = layer << 3 | state;
 127               		.loc 1 91 5 view .LVU20
 128               		.loc 1 91 32 is_stmt 0 view .LVU21
 129 0000 98E0      		ldi r25,lo8(8)
 130 0002 899F      		mul r24,r25
 131 0004 9001      		movw r18,r0
 132 0006 1124      		clr __zero_reg__
 133               		.loc 1 91 37 view .LVU22
 134 0008 622B      		or r22,r18
 135               	.LVL2:
 136               		.loc 1 91 24 view .LVU23
 137 000a 6093 0000 		sts oneshot_layer_data,r22
  92:./tmk_core/common/action_util.c ****     layer_on(layer);
 138               		.loc 1 92 5 is_stmt 1 view .LVU24
 139 000e 0C94 0000 		jmp layer_on
 140               	.LVL3:
 141               		.loc 1 92 5 is_stmt 0 view .LVU25
 142               		.cfi_endproc
 143               	.LFE112:
 145               		.section	.text.reset_oneshot_layer,"ax",@progbits
 146               	.global	reset_oneshot_layer
 148               	reset_oneshot_layer:
 149               	.LFB113:
  93:./tmk_core/common/action_util.c **** #if (defined(ONESHOT_TIMEOUT) && (ONESHOT_TIMEOUT > 0))
  94:./tmk_core/common/action_util.c ****     oneshot_layer_time = timer_read();
  95:./tmk_core/common/action_util.c **** #endif
  96:./tmk_core/common/action_util.c **** }
  97:./tmk_core/common/action_util.c **** void reset_oneshot_layer(void) {
 150               		.loc 1 97 32 is_stmt 1 view -0
 151               		.cfi_startproc
 152               	/* prologue: function */
 153               	/* frame size = 0 */
 154               	/* stack size = 0 */
 155               	.L__stack_usage = 0
  98:./tmk_core/common/action_util.c ****     oneshot_layer_data = 0;
 156               		.loc 1 98 5 view .LVU27
 157               		.loc 1 98 24 is_stmt 0 view .LVU28
 158 0000 1092 0000 		sts oneshot_layer_data,__zero_reg__
 159               	/* epilogue start */
  99:./tmk_core/common/action_util.c **** #if (defined(ONESHOT_TIMEOUT) && (ONESHOT_TIMEOUT > 0))
 100:./tmk_core/common/action_util.c ****     oneshot_layer_time = 0;
 101:./tmk_core/common/action_util.c **** #endif
 102:./tmk_core/common/action_util.c **** }
 160               		.loc 1 102 1 view .LVU29
 161 0004 0895      		ret
 162               		.cfi_endproc
 163               	.LFE113:
 165               		.section	.text.clear_oneshot_layer_state,"ax",@progbits
 166               	.global	clear_oneshot_layer_state
 168               	clear_oneshot_layer_state:
 169               	.LVL4:
 170               	.LFB114:
 103:./tmk_core/common/action_util.c **** void clear_oneshot_layer_state(oneshot_fullfillment_t state)
 104:./tmk_core/common/action_util.c **** {
 171               		.loc 1 104 1 is_stmt 1 view -0
 172               		.cfi_startproc
 173               	/* prologue: function */
 174               	/* frame size = 0 */
 175               	/* stack size = 0 */
 176               	.L__stack_usage = 0
 105:./tmk_core/common/action_util.c ****     uint8_t start_state = oneshot_layer_data;
 177               		.loc 1 105 5 view .LVU31
 178               		.loc 1 105 13 is_stmt 0 view .LVU32
 179 0000 9091 0000 		lds r25,oneshot_layer_data
 180               	.LVL5:
 106:./tmk_core/common/action_util.c ****     oneshot_layer_data &= ~state;
 181               		.loc 1 106 5 is_stmt 1 view .LVU33
 182               		.loc 1 106 24 is_stmt 0 view .LVU34
 183 0004 8095      		com r24
 184               	.LVL6:
 185               		.loc 1 106 24 view .LVU35
 186 0006 8923      		and r24,r25
 187               	.LVL7:
 188               		.loc 1 106 24 view .LVU36
 189 0008 8093 0000 		sts oneshot_layer_data,r24
 107:./tmk_core/common/action_util.c ****     if (!get_oneshot_layer_state() && start_state != oneshot_layer_data) {
 190               		.loc 1 107 5 is_stmt 1 view .LVU37
 191               	.LBB8:
 192               	.LBI8:
  78:./tmk_core/common/action_util.c **** 
 193               		.loc 1 78 16 view .LVU38
 194               	.LBB9:
  78:./tmk_core/common/action_util.c **** 
 195               		.loc 1 78 48 view .LVU39
  78:./tmk_core/common/action_util.c **** 
 196               		.loc 1 78 74 is_stmt 0 view .LVU40
 197 000c 282F      		mov r18,r24
 198 000e 2770      		andi r18,lo8(7)
 199               	.LBE9:
 200               	.LBE8:
 201               		.loc 1 107 8 view .LVU41
 202 0010 01F4      		brne .L8
 203               		.loc 1 107 51 discriminator 1 view .LVU42
 204 0012 282F      		mov r18,r24
 205 0014 082E      		mov __tmp_reg__,r24
 206 0016 000C      		lsl r0
 207 0018 330B      		sbc r19,r19
 208               		.loc 1 107 36 discriminator 1 view .LVU43
 209 001a 9217      		cp r25,r18
 210 001c 1306      		cpc __zero_reg__,r19
 211 001e 01F0      		breq .L8
 108:./tmk_core/common/action_util.c ****         layer_off(get_oneshot_layer());
 212               		.loc 1 108 9 is_stmt 1 view .LVU44
 213               	.LBB10:
 214               	.LBI10:
  77:./tmk_core/common/action_util.c **** inline uint8_t get_oneshot_layer_state(void) { return oneshot_layer_data & 0b111; }
 215               		.loc 1 77 16 view .LVU45
 216               	.LBB11:
  77:./tmk_core/common/action_util.c **** inline uint8_t get_oneshot_layer_state(void) { return oneshot_layer_data & 0b111; }
 217               		.loc 1 77 42 view .LVU46
 218               	.LBE11:
 219               	.LBE10:
 220               		.loc 1 108 9 is_stmt 0 view .LVU47
 221 0020 8595      		asr r24
 222 0022 8595      		asr r24
 223 0024 8595      		asr r24
 224 0026 0C94 0000 		jmp layer_off
 225               	.LVL8:
 226               	.L8:
 227               	/* epilogue start */
 109:./tmk_core/common/action_util.c **** #if (defined(ONESHOT_TIMEOUT) && (ONESHOT_TIMEOUT > 0))
 110:./tmk_core/common/action_util.c ****     oneshot_layer_time = 0;
 111:./tmk_core/common/action_util.c **** #endif
 112:./tmk_core/common/action_util.c ****     }
 113:./tmk_core/common/action_util.c **** }
 228               		.loc 1 113 1 view .LVU48
 229 002a 0895      		ret
 230               		.cfi_endproc
 231               	.LFE114:
 233               		.section	.text.is_oneshot_layer_active,"ax",@progbits
 234               	.global	is_oneshot_layer_active
 236               	is_oneshot_layer_active:
 237               	.LFB115:
 114:./tmk_core/common/action_util.c **** bool is_oneshot_layer_active(void)
 115:./tmk_core/common/action_util.c **** {
 238               		.loc 1 115 1 is_stmt 1 view -0
 239               		.cfi_startproc
 240               	/* prologue: function */
 241               	/* frame size = 0 */
 242               	/* stack size = 0 */
 243               	.L__stack_usage = 0
 116:./tmk_core/common/action_util.c ****     return get_oneshot_layer_state();
 244               		.loc 1 116 5 view .LVU50
 245               	.LBB12:
 246               	.LBI12:
  78:./tmk_core/common/action_util.c **** 
 247               		.loc 1 78 16 view .LVU51
 248               	.LBB13:
  78:./tmk_core/common/action_util.c **** 
 249               		.loc 1 78 48 view .LVU52
  78:./tmk_core/common/action_util.c **** 
 250               		.loc 1 78 74 is_stmt 0 view .LVU53
 251 0000 9091 0000 		lds r25,oneshot_layer_data
 252 0004 9770      		andi r25,lo8(7)
 253               	.LBE13:
 254               	.LBE12:
 255               		.loc 1 116 12 view .LVU54
 256 0006 81E0      		ldi r24,lo8(1)
 257 0008 01F4      		brne .L11
 258 000a 80E0      		ldi r24,0
 259               	.L11:
 260               	/* epilogue start */
 117:./tmk_core/common/action_util.c **** }
 261               		.loc 1 117 1 view .LVU55
 262 000c 0895      		ret
 263               		.cfi_endproc
 264               	.LFE115:
 266               		.section	.text.add_key,"ax",@progbits
 267               	.global	add_key
 269               	add_key:
 270               	.LVL9:
 271               	.LFB117:
 118:./tmk_core/common/action_util.c **** #endif
 119:./tmk_core/common/action_util.c **** 
 120:./tmk_core/common/action_util.c **** void send_keyboard_report(void) {
 121:./tmk_core/common/action_util.c ****     keyboard_report->mods  = real_mods;
 122:./tmk_core/common/action_util.c ****     keyboard_report->mods |= weak_mods;
 123:./tmk_core/common/action_util.c ****     keyboard_report->mods |= macro_mods;
 124:./tmk_core/common/action_util.c **** #ifndef NO_ACTION_ONESHOT
 125:./tmk_core/common/action_util.c ****     if (oneshot_mods) {
 126:./tmk_core/common/action_util.c **** #if (defined(ONESHOT_TIMEOUT) && (ONESHOT_TIMEOUT > 0))
 127:./tmk_core/common/action_util.c ****         if (has_oneshot_mods_timed_out()) {
 128:./tmk_core/common/action_util.c ****             dprintf("Oneshot: timeout\n");
 129:./tmk_core/common/action_util.c ****             clear_oneshot_mods();
 130:./tmk_core/common/action_util.c ****         }
 131:./tmk_core/common/action_util.c **** #endif
 132:./tmk_core/common/action_util.c ****         keyboard_report->mods |= oneshot_mods;
 133:./tmk_core/common/action_util.c ****         if (has_anykey()) {
 134:./tmk_core/common/action_util.c ****             clear_oneshot_mods();
 135:./tmk_core/common/action_util.c ****         }
 136:./tmk_core/common/action_util.c ****     }
 137:./tmk_core/common/action_util.c **** 
 138:./tmk_core/common/action_util.c **** #endif
 139:./tmk_core/common/action_util.c ****     host_keyboard_send(keyboard_report);
 140:./tmk_core/common/action_util.c **** }
 141:./tmk_core/common/action_util.c **** 
 142:./tmk_core/common/action_util.c **** /* key */
 143:./tmk_core/common/action_util.c **** void add_key(uint8_t key)
 144:./tmk_core/common/action_util.c **** {
 272               		.loc 1 144 1 is_stmt 1 view -0
 273               		.cfi_startproc
 274               	/* prologue: function */
 275               	/* frame size = 0 */
 276               	/* stack size = 0 */
 277               	.L__stack_usage = 0
 145:./tmk_core/common/action_util.c **** #ifdef NKRO_ENABLE
 146:./tmk_core/common/action_util.c ****     if (keyboard_protocol && keymap_config.nkro) {
 278               		.loc 1 146 5 view .LVU57
 279               		.loc 1 146 8 is_stmt 0 view .LVU58
 280 0000 9091 0000 		lds r25,keyboard_protocol
 281 0004 9923      		tst r25
 282 0006 01F0      		breq .L13
 283               		.loc 1 146 27 discriminator 1 view .LVU59
 284 0008 9091 0000 		lds r25,keymap_config
 285 000c 97FF      		sbrs r25,7
 286 000e 00C0      		rjmp .L13
 147:./tmk_core/common/action_util.c ****         add_key_bit(key);
 287               		.loc 1 147 9 is_stmt 1 view .LVU60
 288               	.LVL10:
 289               	.LBB18:
 290               	.LBI18:
 148:./tmk_core/common/action_util.c ****         return;
 149:./tmk_core/common/action_util.c ****     }
 150:./tmk_core/common/action_util.c **** #endif
 151:./tmk_core/common/action_util.c ****     add_key_byte(key);
 152:./tmk_core/common/action_util.c **** }
 153:./tmk_core/common/action_util.c **** 
 154:./tmk_core/common/action_util.c **** void del_key(uint8_t key)
 155:./tmk_core/common/action_util.c **** {
 156:./tmk_core/common/action_util.c **** #ifdef NKRO_ENABLE
 157:./tmk_core/common/action_util.c ****     if (keyboard_protocol && keymap_config.nkro) {
 158:./tmk_core/common/action_util.c ****         del_key_bit(key);
 159:./tmk_core/common/action_util.c ****         return;
 160:./tmk_core/common/action_util.c ****     }
 161:./tmk_core/common/action_util.c **** #endif
 162:./tmk_core/common/action_util.c ****     del_key_byte(key);
 163:./tmk_core/common/action_util.c **** }
 164:./tmk_core/common/action_util.c **** 
 165:./tmk_core/common/action_util.c **** void clear_keys(void)
 166:./tmk_core/common/action_util.c **** {
 167:./tmk_core/common/action_util.c ****     // not clear mods
 168:./tmk_core/common/action_util.c ****     for (int8_t i = 1; i < KEYBOARD_REPORT_SIZE; i++) {
 169:./tmk_core/common/action_util.c ****         keyboard_report->raw[i] = 0;
 170:./tmk_core/common/action_util.c ****     }
 171:./tmk_core/common/action_util.c **** }
 172:./tmk_core/common/action_util.c **** 
 173:./tmk_core/common/action_util.c **** 
 174:./tmk_core/common/action_util.c **** /* modifier */
 175:./tmk_core/common/action_util.c **** uint8_t get_mods(void) { return real_mods; }
 176:./tmk_core/common/action_util.c **** void add_mods(uint8_t mods) { real_mods |= mods; }
 177:./tmk_core/common/action_util.c **** void del_mods(uint8_t mods) { real_mods &= ~mods; }
 178:./tmk_core/common/action_util.c **** void set_mods(uint8_t mods) { real_mods = mods; }
 179:./tmk_core/common/action_util.c **** void clear_mods(void) { real_mods = 0; }
 180:./tmk_core/common/action_util.c **** 
 181:./tmk_core/common/action_util.c **** /* weak modifier */
 182:./tmk_core/common/action_util.c **** uint8_t get_weak_mods(void) { return weak_mods; }
 183:./tmk_core/common/action_util.c **** void add_weak_mods(uint8_t mods) { weak_mods |= mods; }
 184:./tmk_core/common/action_util.c **** void del_weak_mods(uint8_t mods) { weak_mods &= ~mods; }
 185:./tmk_core/common/action_util.c **** void set_weak_mods(uint8_t mods) { weak_mods = mods; }
 186:./tmk_core/common/action_util.c **** void clear_weak_mods(void) { weak_mods = 0; }
 187:./tmk_core/common/action_util.c **** 
 188:./tmk_core/common/action_util.c **** /* macro modifier */
 189:./tmk_core/common/action_util.c **** uint8_t get_macro_mods(void) { return macro_mods; }
 190:./tmk_core/common/action_util.c **** void add_macro_mods(uint8_t mods) { macro_mods |= mods; }
 191:./tmk_core/common/action_util.c **** void del_macro_mods(uint8_t mods) { macro_mods &= ~mods; }
 192:./tmk_core/common/action_util.c **** void set_macro_mods(uint8_t mods) { macro_mods = mods; }
 193:./tmk_core/common/action_util.c **** void clear_macro_mods(void) { macro_mods = 0; }
 194:./tmk_core/common/action_util.c **** 
 195:./tmk_core/common/action_util.c **** /* Oneshot modifier */
 196:./tmk_core/common/action_util.c **** #ifndef NO_ACTION_ONESHOT
 197:./tmk_core/common/action_util.c **** void set_oneshot_mods(uint8_t mods)
 198:./tmk_core/common/action_util.c **** {
 199:./tmk_core/common/action_util.c ****     oneshot_mods = mods;
 200:./tmk_core/common/action_util.c **** #if (defined(ONESHOT_TIMEOUT) && (ONESHOT_TIMEOUT > 0))
 201:./tmk_core/common/action_util.c ****     oneshot_time = timer_read();
 202:./tmk_core/common/action_util.c **** #endif
 203:./tmk_core/common/action_util.c **** }
 204:./tmk_core/common/action_util.c **** void clear_oneshot_mods(void)
 205:./tmk_core/common/action_util.c **** {
 206:./tmk_core/common/action_util.c ****     oneshot_mods = 0;
 207:./tmk_core/common/action_util.c **** #if (defined(ONESHOT_TIMEOUT) && (ONESHOT_TIMEOUT > 0))
 208:./tmk_core/common/action_util.c ****     oneshot_time = 0;
 209:./tmk_core/common/action_util.c **** #endif
 210:./tmk_core/common/action_util.c **** }
 211:./tmk_core/common/action_util.c **** uint8_t get_oneshot_mods(void)
 212:./tmk_core/common/action_util.c **** {
 213:./tmk_core/common/action_util.c ****     return oneshot_mods;
 214:./tmk_core/common/action_util.c **** }
 215:./tmk_core/common/action_util.c **** #endif
 216:./tmk_core/common/action_util.c **** 
 217:./tmk_core/common/action_util.c **** /*
 218:./tmk_core/common/action_util.c ****  * inspect keyboard state
 219:./tmk_core/common/action_util.c ****  */
 220:./tmk_core/common/action_util.c **** uint8_t has_anykey(void)
 221:./tmk_core/common/action_util.c **** {
 222:./tmk_core/common/action_util.c ****     uint8_t cnt = 0;
 223:./tmk_core/common/action_util.c ****     for (uint8_t i = 1; i < KEYBOARD_REPORT_SIZE; i++) {
 224:./tmk_core/common/action_util.c ****         if (keyboard_report->raw[i])
 225:./tmk_core/common/action_util.c ****             cnt++;
 226:./tmk_core/common/action_util.c ****     }
 227:./tmk_core/common/action_util.c ****     return cnt;
 228:./tmk_core/common/action_util.c **** }
 229:./tmk_core/common/action_util.c **** 
 230:./tmk_core/common/action_util.c **** uint8_t has_anymod(void)
 231:./tmk_core/common/action_util.c **** {
 232:./tmk_core/common/action_util.c ****     return bitpop(real_mods);
 233:./tmk_core/common/action_util.c **** }
 234:./tmk_core/common/action_util.c **** 
 235:./tmk_core/common/action_util.c **** uint8_t get_first_key(void)
 236:./tmk_core/common/action_util.c **** {
 237:./tmk_core/common/action_util.c **** #ifdef NKRO_ENABLE
 238:./tmk_core/common/action_util.c ****     if (keyboard_protocol && keymap_config.nkro) {
 239:./tmk_core/common/action_util.c ****         uint8_t i = 0;
 240:./tmk_core/common/action_util.c ****         for (; i < KEYBOARD_REPORT_BITS && !keyboard_report->nkro.bits[i]; i++)
 241:./tmk_core/common/action_util.c ****             ;
 242:./tmk_core/common/action_util.c ****         return i<<3 | biton(keyboard_report->nkro.bits[i]);
 243:./tmk_core/common/action_util.c ****     }
 244:./tmk_core/common/action_util.c **** #endif
 245:./tmk_core/common/action_util.c **** #ifdef USB_6KRO_ENABLE
 246:./tmk_core/common/action_util.c ****     uint8_t i = cb_head;
 247:./tmk_core/common/action_util.c ****     do {
 248:./tmk_core/common/action_util.c ****         if (keyboard_report->keys[i] != 0) {
 249:./tmk_core/common/action_util.c ****             break;
 250:./tmk_core/common/action_util.c ****         }
 251:./tmk_core/common/action_util.c ****         i = RO_INC(i);
 252:./tmk_core/common/action_util.c ****     } while (i != cb_tail);
 253:./tmk_core/common/action_util.c ****     return keyboard_report->keys[i];
 254:./tmk_core/common/action_util.c **** #else
 255:./tmk_core/common/action_util.c ****     return keyboard_report->keys[0];
 256:./tmk_core/common/action_util.c **** #endif
 257:./tmk_core/common/action_util.c **** }
 258:./tmk_core/common/action_util.c **** 
 259:./tmk_core/common/action_util.c **** 
 260:./tmk_core/common/action_util.c **** 
 261:./tmk_core/common/action_util.c **** /* local functions */
 262:./tmk_core/common/action_util.c **** static inline void add_key_byte(uint8_t code)
 263:./tmk_core/common/action_util.c **** {
 264:./tmk_core/common/action_util.c **** #ifdef USB_6KRO_ENABLE
 265:./tmk_core/common/action_util.c ****     int8_t i = cb_head;
 266:./tmk_core/common/action_util.c ****     int8_t empty = -1;
 267:./tmk_core/common/action_util.c ****     if (cb_count) {
 268:./tmk_core/common/action_util.c ****         do {
 269:./tmk_core/common/action_util.c ****             if (keyboard_report->keys[i] == code) {
 270:./tmk_core/common/action_util.c ****                 return;
 271:./tmk_core/common/action_util.c ****             }
 272:./tmk_core/common/action_util.c ****             if (empty == -1 && keyboard_report->keys[i] == 0) {
 273:./tmk_core/common/action_util.c ****                 empty = i;
 274:./tmk_core/common/action_util.c ****             }
 275:./tmk_core/common/action_util.c ****             i = RO_INC(i);
 276:./tmk_core/common/action_util.c ****         } while (i != cb_tail);
 277:./tmk_core/common/action_util.c ****         if (i == cb_tail) {
 278:./tmk_core/common/action_util.c ****             if (cb_tail == cb_head) {
 279:./tmk_core/common/action_util.c ****                 // buffer is full
 280:./tmk_core/common/action_util.c ****                 if (empty == -1) {
 281:./tmk_core/common/action_util.c ****                     // pop head when has no empty space
 282:./tmk_core/common/action_util.c ****                     cb_head = RO_INC(cb_head);
 283:./tmk_core/common/action_util.c ****                     cb_count--;
 284:./tmk_core/common/action_util.c ****                 }
 285:./tmk_core/common/action_util.c ****                 else {
 286:./tmk_core/common/action_util.c ****                     // left shift when has empty space
 287:./tmk_core/common/action_util.c ****                     uint8_t offset = 1;
 288:./tmk_core/common/action_util.c ****                     i = RO_INC(empty);
 289:./tmk_core/common/action_util.c ****                     do {
 290:./tmk_core/common/action_util.c ****                         if (keyboard_report->keys[i] != 0) {
 291:./tmk_core/common/action_util.c ****                             keyboard_report->keys[empty] = keyboard_report->keys[i];
 292:./tmk_core/common/action_util.c ****                             keyboard_report->keys[i] = 0;
 293:./tmk_core/common/action_util.c ****                             empty = RO_INC(empty);
 294:./tmk_core/common/action_util.c ****                         }
 295:./tmk_core/common/action_util.c ****                         else {
 296:./tmk_core/common/action_util.c ****                             offset++;
 297:./tmk_core/common/action_util.c ****                         }
 298:./tmk_core/common/action_util.c ****                         i = RO_INC(i);
 299:./tmk_core/common/action_util.c ****                     } while (i != cb_tail);
 300:./tmk_core/common/action_util.c ****                     cb_tail = RO_SUB(cb_tail, offset);
 301:./tmk_core/common/action_util.c ****                 }
 302:./tmk_core/common/action_util.c ****             }
 303:./tmk_core/common/action_util.c ****         }
 304:./tmk_core/common/action_util.c ****     }
 305:./tmk_core/common/action_util.c ****     // add to tail
 306:./tmk_core/common/action_util.c ****     keyboard_report->keys[cb_tail] = code;
 307:./tmk_core/common/action_util.c ****     cb_tail = RO_INC(cb_tail);
 308:./tmk_core/common/action_util.c ****     cb_count++;
 309:./tmk_core/common/action_util.c **** #else
 310:./tmk_core/common/action_util.c ****     int8_t i = 0;
 311:./tmk_core/common/action_util.c ****     int8_t empty = -1;
 312:./tmk_core/common/action_util.c ****     for (; i < KEYBOARD_REPORT_KEYS; i++) {
 313:./tmk_core/common/action_util.c ****         if (keyboard_report->keys[i] == code) {
 314:./tmk_core/common/action_util.c ****             break;
 315:./tmk_core/common/action_util.c ****         }
 316:./tmk_core/common/action_util.c ****         if (empty == -1 && keyboard_report->keys[i] == 0) {
 317:./tmk_core/common/action_util.c ****             empty = i;
 318:./tmk_core/common/action_util.c ****         }
 319:./tmk_core/common/action_util.c ****     }
 320:./tmk_core/common/action_util.c ****     if (i == KEYBOARD_REPORT_KEYS) {
 321:./tmk_core/common/action_util.c ****         if (empty != -1) {
 322:./tmk_core/common/action_util.c ****             keyboard_report->keys[empty] = code;
 323:./tmk_core/common/action_util.c ****         }
 324:./tmk_core/common/action_util.c ****     }
 325:./tmk_core/common/action_util.c **** #endif
 326:./tmk_core/common/action_util.c **** }
 327:./tmk_core/common/action_util.c **** 
 328:./tmk_core/common/action_util.c **** static inline void del_key_byte(uint8_t code)
 329:./tmk_core/common/action_util.c **** {
 330:./tmk_core/common/action_util.c **** #ifdef USB_6KRO_ENABLE
 331:./tmk_core/common/action_util.c ****     uint8_t i = cb_head;
 332:./tmk_core/common/action_util.c ****     if (cb_count) {
 333:./tmk_core/common/action_util.c ****         do {
 334:./tmk_core/common/action_util.c ****             if (keyboard_report->keys[i] == code) {
 335:./tmk_core/common/action_util.c ****                 keyboard_report->keys[i] = 0;
 336:./tmk_core/common/action_util.c ****                 cb_count--;
 337:./tmk_core/common/action_util.c ****                 if (cb_count == 0) {
 338:./tmk_core/common/action_util.c ****                     // reset head and tail
 339:./tmk_core/common/action_util.c ****                     cb_tail = cb_head = 0;
 340:./tmk_core/common/action_util.c ****                 }
 341:./tmk_core/common/action_util.c ****                 if (i == RO_DEC(cb_tail)) {
 342:./tmk_core/common/action_util.c ****                     // left shift when next to tail
 343:./tmk_core/common/action_util.c ****                     do {
 344:./tmk_core/common/action_util.c ****                         cb_tail = RO_DEC(cb_tail);
 345:./tmk_core/common/action_util.c ****                         if (keyboard_report->keys[RO_DEC(cb_tail)] != 0) {
 346:./tmk_core/common/action_util.c ****                             break;
 347:./tmk_core/common/action_util.c ****                         }
 348:./tmk_core/common/action_util.c ****                     } while (cb_tail != cb_head);
 349:./tmk_core/common/action_util.c ****                 }
 350:./tmk_core/common/action_util.c ****                 break;
 351:./tmk_core/common/action_util.c ****             }
 352:./tmk_core/common/action_util.c ****             i = RO_INC(i);
 353:./tmk_core/common/action_util.c ****         } while (i != cb_tail);
 354:./tmk_core/common/action_util.c ****     }
 355:./tmk_core/common/action_util.c **** #else
 356:./tmk_core/common/action_util.c ****     for (uint8_t i = 0; i < KEYBOARD_REPORT_KEYS; i++) {
 357:./tmk_core/common/action_util.c ****         if (keyboard_report->keys[i] == code) {
 358:./tmk_core/common/action_util.c ****             keyboard_report->keys[i] = 0;
 359:./tmk_core/common/action_util.c ****         }
 360:./tmk_core/common/action_util.c ****     }
 361:./tmk_core/common/action_util.c **** #endif
 362:./tmk_core/common/action_util.c **** }
 363:./tmk_core/common/action_util.c **** 
 364:./tmk_core/common/action_util.c **** #ifdef NKRO_ENABLE
 365:./tmk_core/common/action_util.c **** static inline void add_key_bit(uint8_t code)
 291               		.loc 1 365 20 view .LVU61
 292               	.LBB19:
 366:./tmk_core/common/action_util.c **** {
 367:./tmk_core/common/action_util.c ****     if ((code>>3) < KEYBOARD_REPORT_BITS) {
 293               		.loc 1 367 5 view .LVU62
 294               		.loc 1 367 19 is_stmt 0 view .LVU63
 295 0010 E82F      		mov r30,r24
 296 0012 E695      		lsr r30
 297 0014 E695      		lsr r30
 298 0016 E695      		lsr r30
 299               		.loc 1 367 8 view .LVU64
 300 0018 EF31      		cpi r30,lo8(31)
 301 001a 01F0      		breq .L12
 368:./tmk_core/common/action_util.c ****         keyboard_report->nkro.bits[code>>3] |= 1<<(code&7);
 302               		.loc 1 368 9 is_stmt 1 view .LVU65
 303               		.loc 1 368 45 is_stmt 0 view .LVU66
 304 001c 2091 0000 		lds r18,keyboard_report
 305 0020 3091 0000 		lds r19,keyboard_report+1
 306 0024 E20F      		add r30,r18
 307 0026 F32F      		mov r31,r19
 308 0028 F11D      		adc r31,__zero_reg__
 309               		.loc 1 368 56 view .LVU67
 310 002a 8770      		andi r24,lo8(7)
 311               	.LVL11:
 312               		.loc 1 368 49 view .LVU68
 313 002c 21E0      		ldi r18,lo8(1)
 314 002e 30E0      		ldi r19,0
 315 0030 00C0      		rjmp 2f
 316               		1:
 317 0032 220F      		lsl r18
 318               		2:
 319 0034 8A95      		dec r24
 320 0036 02F4      		brpl 1b
 321               		.loc 1 368 45 view .LVU69
 322 0038 8181      		ldd r24,Z+1
 323 003a 822B      		or r24,r18
 324 003c 8183      		std Z+1,r24
 325 003e 0895      		ret
 326               	.LVL12:
 327               	.L13:
 328               		.loc 1 368 45 view .LVU70
 329               	.LBE19:
 330               	.LBE18:
 331               	.LBB20:
 332               	.LBB21:
 313:./tmk_core/common/action_util.c ****             break;
 333               		.loc 1 313 28 view .LVU71
 334 0040 2091 0000 		lds r18,keyboard_report
 335 0044 3091 0000 		lds r19,keyboard_report+1
 336 0048 F901      		movw r30,r18
 337 004a 3296      		adiw r30,2
 338 004c 9FEF      		ldi r25,lo8(-1)
 339 004e 40E0      		ldi r20,0
 340               	.L16:
 341               	.LVL13:
 313:./tmk_core/common/action_util.c ****             break;
 342               		.loc 1 313 9 is_stmt 1 view .LVU72
 313:./tmk_core/common/action_util.c ****             break;
 343               		.loc 1 313 34 is_stmt 0 view .LVU73
 344 0050 5191      		ld r21,Z+
 313:./tmk_core/common/action_util.c ****             break;
 345               		.loc 1 313 12 view .LVU74
 346 0052 8517      		cp r24,r21
 347 0054 01F0      		breq .L12
 316:./tmk_core/common/action_util.c ****             empty = i;
 348               		.loc 1 316 9 is_stmt 1 view .LVU75
 316:./tmk_core/common/action_util.c ****             empty = i;
 349               		.loc 1 316 12 is_stmt 0 view .LVU76
 350 0056 9F3F      		cpi r25,lo8(-1)
 351 0058 01F4      		brne .L15
 316:./tmk_core/common/action_util.c ****             empty = i;
 352               		.loc 1 316 25 view .LVU77
 353 005a 5111      		cpse r21,__zero_reg__
 354 005c 00C0      		rjmp .L15
 355 005e 942F      		mov r25,r20
 356               	.LVL14:
 357               	.L15:
 312:./tmk_core/common/action_util.c ****         if (keyboard_report->keys[i] == code) {
 358               		.loc 1 312 38 is_stmt 1 view .LVU78
 359 0060 4F5F      		subi r20,lo8(-(1))
 360               	.LVL15:
 312:./tmk_core/common/action_util.c ****         if (keyboard_report->keys[i] == code) {
 361               		.loc 1 312 12 view .LVU79
 312:./tmk_core/common/action_util.c ****         if (keyboard_report->keys[i] == code) {
 362               		.loc 1 312 5 is_stmt 0 view .LVU80
 363 0062 4E31      		cpi r20,lo8(30)
 364 0064 01F4      		brne .L16
 320:./tmk_core/common/action_util.c ****         if (empty != -1) {
 365               		.loc 1 320 5 is_stmt 1 view .LVU81
 321:./tmk_core/common/action_util.c ****             keyboard_report->keys[empty] = code;
 366               		.loc 1 321 9 view .LVU82
 321:./tmk_core/common/action_util.c ****             keyboard_report->keys[empty] = code;
 367               		.loc 1 321 12 is_stmt 0 view .LVU83
 368 0066 9F3F      		cpi r25,lo8(-1)
 369 0068 01F4      		brne .L18
 370               	.LVL16:
 371               	.L12:
 372               	/* epilogue start */
 321:./tmk_core/common/action_util.c ****             keyboard_report->keys[empty] = code;
 373               		.loc 1 321 12 view .LVU84
 374               	.LBE21:
 375               	.LBE20:
 152:./tmk_core/common/action_util.c **** 
 376               		.loc 1 152 1 view .LVU85
 377 006a 0895      		ret
 378               	.LVL17:
 379               	.L18:
 380               	.LBB23:
 381               	.LBB22:
 322:./tmk_core/common/action_util.c ****         }
 382               		.loc 1 322 13 is_stmt 1 view .LVU86
 322:./tmk_core/common/action_util.c ****         }
 383               		.loc 1 322 42 is_stmt 0 view .LVU87
 384 006c 290F      		add r18,r25
 385 006e 311D      		adc r19,__zero_reg__
 386 0070 97FD      		sbrc r25,7
 387 0072 3A95      		dec r19
 388 0074 F901      		movw r30,r18
 389 0076 8283      		std Z+2,r24
 390 0078 0895      		ret
 391               	.LBE22:
 392               	.LBE23:
 393               		.cfi_endproc
 394               	.LFE117:
 396               		.section	.text.del_key,"ax",@progbits
 397               	.global	del_key
 399               	del_key:
 400               	.LVL18:
 401               	.LFB118:
 155:./tmk_core/common/action_util.c **** #ifdef NKRO_ENABLE
 402               		.loc 1 155 1 is_stmt 1 view -0
 403               		.cfi_startproc
 404               	/* prologue: function */
 405               	/* frame size = 0 */
 406               	/* stack size = 0 */
 407               	.L__stack_usage = 0
 157:./tmk_core/common/action_util.c ****         del_key_bit(key);
 408               		.loc 1 157 5 view .LVU89
 157:./tmk_core/common/action_util.c ****         del_key_bit(key);
 409               		.loc 1 157 8 is_stmt 0 view .LVU90
 410 0000 9091 0000 		lds r25,keyboard_protocol
 411 0004 9923      		tst r25
 412 0006 01F0      		breq .L28
 157:./tmk_core/common/action_util.c ****         del_key_bit(key);
 413               		.loc 1 157 27 discriminator 1 view .LVU91
 414 0008 9091 0000 		lds r25,keymap_config
 415 000c 97FF      		sbrs r25,7
 416 000e 00C0      		rjmp .L28
 158:./tmk_core/common/action_util.c ****         return;
 417               		.loc 1 158 9 is_stmt 1 view .LVU92
 418               	.LVL19:
 419               	.LBB29:
 420               	.LBI29:
 369:./tmk_core/common/action_util.c ****     } else {
 370:./tmk_core/common/action_util.c ****         dprintf("add_key_bit: can't add: %02X\n", code);
 371:./tmk_core/common/action_util.c ****     }
 372:./tmk_core/common/action_util.c **** }
 373:./tmk_core/common/action_util.c **** 
 374:./tmk_core/common/action_util.c **** static inline void del_key_bit(uint8_t code)
 421               		.loc 1 374 20 view .LVU93
 422               	.LBB30:
 375:./tmk_core/common/action_util.c **** {
 376:./tmk_core/common/action_util.c ****     if ((code>>3) < KEYBOARD_REPORT_BITS) {
 423               		.loc 1 376 5 view .LVU94
 424               		.loc 1 376 19 is_stmt 0 view .LVU95
 425 0010 E82F      		mov r30,r24
 426 0012 E695      		lsr r30
 427 0014 E695      		lsr r30
 428 0016 E695      		lsr r30
 429               		.loc 1 376 8 view .LVU96
 430 0018 EF31      		cpi r30,lo8(31)
 431 001a 01F0      		breq .L27
 377:./tmk_core/common/action_util.c ****         keyboard_report->nkro.bits[code>>3] &= ~(1<<(code&7));
 432               		.loc 1 377 9 is_stmt 1 view .LVU97
 433               		.loc 1 377 45 is_stmt 0 view .LVU98
 434 001c 2091 0000 		lds r18,keyboard_report
 435 0020 3091 0000 		lds r19,keyboard_report+1
 436 0024 E20F      		add r30,r18
 437 0026 F32F      		mov r31,r19
 438 0028 F11D      		adc r31,__zero_reg__
 439               		.loc 1 377 58 view .LVU99
 440 002a 282F      		mov r18,r24
 441 002c 2770      		andi r18,lo8(7)
 442               		.loc 1 377 51 view .LVU100
 443 002e 81E0      		ldi r24,lo8(1)
 444 0030 90E0      		ldi r25,0
 445               	.LVL20:
 446               		.loc 1 377 51 view .LVU101
 447 0032 00C0      		rjmp 2f
 448               		1:
 449 0034 880F      		lsl r24
 450               		2:
 451 0036 2A95      		dec r18
 452 0038 02F4      		brpl 1b
 453               		.loc 1 377 45 view .LVU102
 454 003a 8095      		com r24
 455 003c 9181      		ldd r25,Z+1
 456 003e 8923      		and r24,r25
 457 0040 8183      		std Z+1,r24
 458 0042 0895      		ret
 459               	.LVL21:
 460               	.L28:
 461               		.loc 1 377 45 view .LVU103
 462               	.LBE30:
 463               	.LBE29:
 464               	.LBB31:
 465               	.LBB32:
 357:./tmk_core/common/action_util.c ****             keyboard_report->keys[i] = 0;
 466               		.loc 1 357 28 view .LVU104
 467 0044 2091 0000 		lds r18,keyboard_report
 468 0048 3091 0000 		lds r19,keyboard_report+1
 469 004c F901      		movw r30,r18
 470 004e 3296      		adiw r30,2
 471 0050 205E      		subi r18,-32
 472 0052 3F4F      		sbci r19,-1
 473               	.L32:
 474               	.LVL22:
 357:./tmk_core/common/action_util.c ****             keyboard_report->keys[i] = 0;
 475               		.loc 1 357 9 is_stmt 1 view .LVU105
 357:./tmk_core/common/action_util.c ****             keyboard_report->keys[i] = 0;
 476               		.loc 1 357 34 is_stmt 0 view .LVU106
 477 0054 9191      		ld r25,Z+
 478               	.LVL23:
 357:./tmk_core/common/action_util.c ****             keyboard_report->keys[i] = 0;
 479               		.loc 1 357 12 view .LVU107
 480 0056 8913      		cpse r24,r25
 481 0058 00C0      		rjmp .L31
 358:./tmk_core/common/action_util.c ****         }
 482               		.loc 1 358 13 is_stmt 1 view .LVU108
 358:./tmk_core/common/action_util.c ****         }
 483               		.loc 1 358 38 is_stmt 0 view .LVU109
 484 005a DF01      		movw r26,r30
 485 005c 1197      		sbiw r26,1
 486 005e 1C92      		st X,__zero_reg__
 487               	.L31:
 356:./tmk_core/common/action_util.c ****         if (keyboard_report->keys[i] == code) {
 488               		.loc 1 356 51 is_stmt 1 view .LVU110
 489               	.LVL24:
 356:./tmk_core/common/action_util.c ****         if (keyboard_report->keys[i] == code) {
 490               		.loc 1 356 25 view .LVU111
 356:./tmk_core/common/action_util.c ****         if (keyboard_report->keys[i] == code) {
 491               		.loc 1 356 5 is_stmt 0 view .LVU112
 492 0060 E217      		cp r30,r18
 493 0062 F307      		cpc r31,r19
 494 0064 01F4      		brne .L32
 495               	.LVL25:
 496               	.L27:
 497               	/* epilogue start */
 356:./tmk_core/common/action_util.c ****         if (keyboard_report->keys[i] == code) {
 498               		.loc 1 356 5 view .LVU113
 499               	.LBE32:
 500               	.LBE31:
 163:./tmk_core/common/action_util.c **** 
 501               		.loc 1 163 1 view .LVU114
 502 0066 0895      		ret
 503               		.cfi_endproc
 504               	.LFE118:
 506               		.section	.text.clear_keys,"ax",@progbits
 507               	.global	clear_keys
 509               	clear_keys:
 510               	.LFB119:
 166:./tmk_core/common/action_util.c ****     // not clear mods
 511               		.loc 1 166 1 is_stmt 1 view -0
 512               		.cfi_startproc
 513               	/* prologue: function */
 514               	/* frame size = 0 */
 515               	/* stack size = 0 */
 516               	.L__stack_usage = 0
 168:./tmk_core/common/action_util.c ****         keyboard_report->raw[i] = 0;
 517               		.loc 1 168 5 view .LVU116
 518               	.LBB33:
 168:./tmk_core/common/action_util.c ****         keyboard_report->raw[i] = 0;
 519               		.loc 1 168 10 view .LVU117
 520               	.LVL26:
 168:./tmk_core/common/action_util.c ****         keyboard_report->raw[i] = 0;
 521               		.loc 1 168 24 view .LVU118
 522               	.LBE33:
 166:./tmk_core/common/action_util.c ****     // not clear mods
 523               		.loc 1 166 1 is_stmt 0 view .LVU119
 524 0000 81E0      		ldi r24,lo8(1)
 525 0002 90E0      		ldi r25,0
 526               	.LVL27:
 527               	.L39:
 528               	.LBB34:
 169:./tmk_core/common/action_util.c ****     }
 529               		.loc 1 169 9 is_stmt 1 discriminator 3 view .LVU120
 169:./tmk_core/common/action_util.c ****     }
 530               		.loc 1 169 24 is_stmt 0 discriminator 3 view .LVU121
 531 0004 E091 0000 		lds r30,keyboard_report
 532 0008 F091 0000 		lds r31,keyboard_report+1
 169:./tmk_core/common/action_util.c ****     }
 533               		.loc 1 169 33 discriminator 3 view .LVU122
 534 000c E80F      		add r30,r24
 535 000e F91F      		adc r31,r25
 536 0010 1082      		st Z,__zero_reg__
 168:./tmk_core/common/action_util.c ****         keyboard_report->raw[i] = 0;
 537               		.loc 1 168 50 is_stmt 1 discriminator 3 view .LVU123
 538               	.LVL28:
 168:./tmk_core/common/action_util.c ****         keyboard_report->raw[i] = 0;
 539               		.loc 1 168 24 discriminator 3 view .LVU124
 540 0012 0196      		adiw r24,1
 541               	.LVL29:
 168:./tmk_core/common/action_util.c ****         keyboard_report->raw[i] = 0;
 542               		.loc 1 168 5 is_stmt 0 discriminator 3 view .LVU125
 543 0014 8032      		cpi r24,32
 544 0016 9105      		cpc r25,__zero_reg__
 545 0018 01F4      		brne .L39
 546               	/* epilogue start */
 547               	.LBE34:
 171:./tmk_core/common/action_util.c **** 
 548               		.loc 1 171 1 view .LVU126
 549 001a 0895      		ret
 550               		.cfi_endproc
 551               	.LFE119:
 553               		.section	.text.get_mods,"ax",@progbits
 554               	.global	get_mods
 556               	get_mods:
 557               	.LFB120:
 175:./tmk_core/common/action_util.c **** void add_mods(uint8_t mods) { real_mods |= mods; }
 558               		.loc 1 175 24 is_stmt 1 view -0
 559               		.cfi_startproc
 560               	/* prologue: function */
 561               	/* frame size = 0 */
 562               	/* stack size = 0 */
 563               	.L__stack_usage = 0
 175:./tmk_core/common/action_util.c **** void add_mods(uint8_t mods) { real_mods |= mods; }
 564               		.loc 1 175 26 view .LVU128
 175:./tmk_core/common/action_util.c **** void add_mods(uint8_t mods) { real_mods |= mods; }
 565               		.loc 1 175 1 is_stmt 0 view .LVU129
 566 0000 8091 0000 		lds r24,real_mods
 567               	/* epilogue start */
 568 0004 0895      		ret
 569               		.cfi_endproc
 570               	.LFE120:
 572               		.section	.text.add_mods,"ax",@progbits
 573               	.global	add_mods
 575               	add_mods:
 576               	.LVL30:
 577               	.LFB121:
 176:./tmk_core/common/action_util.c **** void del_mods(uint8_t mods) { real_mods &= ~mods; }
 578               		.loc 1 176 29 is_stmt 1 view -0
 579               		.cfi_startproc
 580               	/* prologue: function */
 581               	/* frame size = 0 */
 582               	/* stack size = 0 */
 583               	.L__stack_usage = 0
 176:./tmk_core/common/action_util.c **** void del_mods(uint8_t mods) { real_mods &= ~mods; }
 584               		.loc 1 176 31 view .LVU131
 176:./tmk_core/common/action_util.c **** void del_mods(uint8_t mods) { real_mods &= ~mods; }
 585               		.loc 1 176 41 is_stmt 0 view .LVU132
 586 0000 9091 0000 		lds r25,real_mods
 587 0004 892B      		or r24,r25
 588               	.LVL31:
 176:./tmk_core/common/action_util.c **** void del_mods(uint8_t mods) { real_mods &= ~mods; }
 589               		.loc 1 176 41 view .LVU133
 590 0006 8093 0000 		sts real_mods,r24
 591               	/* epilogue start */
 176:./tmk_core/common/action_util.c **** void del_mods(uint8_t mods) { real_mods &= ~mods; }
 592               		.loc 1 176 1 view .LVU134
 593 000a 0895      		ret
 594               		.cfi_endproc
 595               	.LFE121:
 597               		.section	.text.del_mods,"ax",@progbits
 598               	.global	del_mods
 600               	del_mods:
 601               	.LVL32:
 602               	.LFB122:
 177:./tmk_core/common/action_util.c **** void set_mods(uint8_t mods) { real_mods = mods; }
 603               		.loc 1 177 29 is_stmt 1 view -0
 604               		.cfi_startproc
 605               	/* prologue: function */
 606               	/* frame size = 0 */
 607               	/* stack size = 0 */
 608               	.L__stack_usage = 0
 177:./tmk_core/common/action_util.c **** void set_mods(uint8_t mods) { real_mods = mods; }
 609               		.loc 1 177 31 view .LVU136
 177:./tmk_core/common/action_util.c **** void set_mods(uint8_t mods) { real_mods = mods; }
 610               		.loc 1 177 41 is_stmt 0 view .LVU137
 611 0000 8095      		com r24
 612               	.LVL33:
 177:./tmk_core/common/action_util.c **** void set_mods(uint8_t mods) { real_mods = mods; }
 613               		.loc 1 177 41 view .LVU138
 614 0002 9091 0000 		lds r25,real_mods
 615 0006 9823      		and r25,r24
 616 0008 9093 0000 		sts real_mods,r25
 617               	/* epilogue start */
 177:./tmk_core/common/action_util.c **** void set_mods(uint8_t mods) { real_mods = mods; }
 618               		.loc 1 177 1 view .LVU139
 619 000c 0895      		ret
 620               		.cfi_endproc
 621               	.LFE122:
 623               		.section	.text.set_mods,"ax",@progbits
 624               	.global	set_mods
 626               	set_mods:
 627               	.LVL34:
 628               	.LFB123:
 178:./tmk_core/common/action_util.c **** void clear_mods(void) { real_mods = 0; }
 629               		.loc 1 178 29 is_stmt 1 view -0
 630               		.cfi_startproc
 631               	/* prologue: function */
 632               	/* frame size = 0 */
 633               	/* stack size = 0 */
 634               	.L__stack_usage = 0
 178:./tmk_core/common/action_util.c **** void clear_mods(void) { real_mods = 0; }
 635               		.loc 1 178 31 view .LVU141
 178:./tmk_core/common/action_util.c **** void clear_mods(void) { real_mods = 0; }
 636               		.loc 1 178 41 is_stmt 0 view .LVU142
 637 0000 8093 0000 		sts real_mods,r24
 638               	/* epilogue start */
 178:./tmk_core/common/action_util.c **** void clear_mods(void) { real_mods = 0; }
 639               		.loc 1 178 1 view .LVU143
 640 0004 0895      		ret
 641               		.cfi_endproc
 642               	.LFE123:
 644               		.section	.text.clear_mods,"ax",@progbits
 645               	.global	clear_mods
 647               	clear_mods:
 648               	.LFB124:
 179:./tmk_core/common/action_util.c **** 
 649               		.loc 1 179 23 is_stmt 1 view -0
 650               		.cfi_startproc
 651               	/* prologue: function */
 652               	/* frame size = 0 */
 653               	/* stack size = 0 */
 654               	.L__stack_usage = 0
 179:./tmk_core/common/action_util.c **** 
 655               		.loc 1 179 25 view .LVU145
 179:./tmk_core/common/action_util.c **** 
 656               		.loc 1 179 35 is_stmt 0 view .LVU146
 657 0000 1092 0000 		sts real_mods,__zero_reg__
 658               	/* epilogue start */
 179:./tmk_core/common/action_util.c **** 
 659               		.loc 1 179 1 view .LVU147
 660 0004 0895      		ret
 661               		.cfi_endproc
 662               	.LFE124:
 664               		.section	.text.get_weak_mods,"ax",@progbits
 665               	.global	get_weak_mods
 667               	get_weak_mods:
 668               	.LFB125:
 182:./tmk_core/common/action_util.c **** void add_weak_mods(uint8_t mods) { weak_mods |= mods; }
 669               		.loc 1 182 29 is_stmt 1 view -0
 670               		.cfi_startproc
 671               	/* prologue: function */
 672               	/* frame size = 0 */
 673               	/* stack size = 0 */
 674               	.L__stack_usage = 0
 182:./tmk_core/common/action_util.c **** void add_weak_mods(uint8_t mods) { weak_mods |= mods; }
 675               		.loc 1 182 31 view .LVU149
 182:./tmk_core/common/action_util.c **** void add_weak_mods(uint8_t mods) { weak_mods |= mods; }
 676               		.loc 1 182 1 is_stmt 0 view .LVU150
 677 0000 8091 0000 		lds r24,weak_mods
 678               	/* epilogue start */
 679 0004 0895      		ret
 680               		.cfi_endproc
 681               	.LFE125:
 683               		.section	.text.add_weak_mods,"ax",@progbits
 684               	.global	add_weak_mods
 686               	add_weak_mods:
 687               	.LVL35:
 688               	.LFB126:
 183:./tmk_core/common/action_util.c **** void del_weak_mods(uint8_t mods) { weak_mods &= ~mods; }
 689               		.loc 1 183 34 is_stmt 1 view -0
 690               		.cfi_startproc
 691               	/* prologue: function */
 692               	/* frame size = 0 */
 693               	/* stack size = 0 */
 694               	.L__stack_usage = 0
 183:./tmk_core/common/action_util.c **** void del_weak_mods(uint8_t mods) { weak_mods &= ~mods; }
 695               		.loc 1 183 36 view .LVU152
 183:./tmk_core/common/action_util.c **** void del_weak_mods(uint8_t mods) { weak_mods &= ~mods; }
 696               		.loc 1 183 46 is_stmt 0 view .LVU153
 697 0000 9091 0000 		lds r25,weak_mods
 698 0004 892B      		or r24,r25
 699               	.LVL36:
 183:./tmk_core/common/action_util.c **** void del_weak_mods(uint8_t mods) { weak_mods &= ~mods; }
 700               		.loc 1 183 46 view .LVU154
 701 0006 8093 0000 		sts weak_mods,r24
 702               	/* epilogue start */
 183:./tmk_core/common/action_util.c **** void del_weak_mods(uint8_t mods) { weak_mods &= ~mods; }
 703               		.loc 1 183 1 view .LVU155
 704 000a 0895      		ret
 705               		.cfi_endproc
 706               	.LFE126:
 708               		.section	.text.del_weak_mods,"ax",@progbits
 709               	.global	del_weak_mods
 711               	del_weak_mods:
 712               	.LVL37:
 713               	.LFB127:
 184:./tmk_core/common/action_util.c **** void set_weak_mods(uint8_t mods) { weak_mods = mods; }
 714               		.loc 1 184 34 is_stmt 1 view -0
 715               		.cfi_startproc
 716               	/* prologue: function */
 717               	/* frame size = 0 */
 718               	/* stack size = 0 */
 719               	.L__stack_usage = 0
 184:./tmk_core/common/action_util.c **** void set_weak_mods(uint8_t mods) { weak_mods = mods; }
 720               		.loc 1 184 36 view .LVU157
 184:./tmk_core/common/action_util.c **** void set_weak_mods(uint8_t mods) { weak_mods = mods; }
 721               		.loc 1 184 46 is_stmt 0 view .LVU158
 722 0000 8095      		com r24
 723               	.LVL38:
 184:./tmk_core/common/action_util.c **** void set_weak_mods(uint8_t mods) { weak_mods = mods; }
 724               		.loc 1 184 46 view .LVU159
 725 0002 9091 0000 		lds r25,weak_mods
 726 0006 9823      		and r25,r24
 727 0008 9093 0000 		sts weak_mods,r25
 728               	/* epilogue start */
 184:./tmk_core/common/action_util.c **** void set_weak_mods(uint8_t mods) { weak_mods = mods; }
 729               		.loc 1 184 1 view .LVU160
 730 000c 0895      		ret
 731               		.cfi_endproc
 732               	.LFE127:
 734               		.section	.text.set_weak_mods,"ax",@progbits
 735               	.global	set_weak_mods
 737               	set_weak_mods:
 738               	.LVL39:
 739               	.LFB128:
 185:./tmk_core/common/action_util.c **** void clear_weak_mods(void) { weak_mods = 0; }
 740               		.loc 1 185 34 is_stmt 1 view -0
 741               		.cfi_startproc
 742               	/* prologue: function */
 743               	/* frame size = 0 */
 744               	/* stack size = 0 */
 745               	.L__stack_usage = 0
 185:./tmk_core/common/action_util.c **** void clear_weak_mods(void) { weak_mods = 0; }
 746               		.loc 1 185 36 view .LVU162
 185:./tmk_core/common/action_util.c **** void clear_weak_mods(void) { weak_mods = 0; }
 747               		.loc 1 185 46 is_stmt 0 view .LVU163
 748 0000 8093 0000 		sts weak_mods,r24
 749               	/* epilogue start */
 185:./tmk_core/common/action_util.c **** void clear_weak_mods(void) { weak_mods = 0; }
 750               		.loc 1 185 1 view .LVU164
 751 0004 0895      		ret
 752               		.cfi_endproc
 753               	.LFE128:
 755               		.section	.text.clear_weak_mods,"ax",@progbits
 756               	.global	clear_weak_mods
 758               	clear_weak_mods:
 759               	.LFB129:
 186:./tmk_core/common/action_util.c **** 
 760               		.loc 1 186 28 is_stmt 1 view -0
 761               		.cfi_startproc
 762               	/* prologue: function */
 763               	/* frame size = 0 */
 764               	/* stack size = 0 */
 765               	.L__stack_usage = 0
 186:./tmk_core/common/action_util.c **** 
 766               		.loc 1 186 30 view .LVU166
 186:./tmk_core/common/action_util.c **** 
 767               		.loc 1 186 40 is_stmt 0 view .LVU167
 768 0000 1092 0000 		sts weak_mods,__zero_reg__
 769               	/* epilogue start */
 186:./tmk_core/common/action_util.c **** 
 770               		.loc 1 186 1 view .LVU168
 771 0004 0895      		ret
 772               		.cfi_endproc
 773               	.LFE129:
 775               		.section	.text.get_macro_mods,"ax",@progbits
 776               	.global	get_macro_mods
 778               	get_macro_mods:
 779               	.LFB130:
 189:./tmk_core/common/action_util.c **** void add_macro_mods(uint8_t mods) { macro_mods |= mods; }
 780               		.loc 1 189 30 is_stmt 1 view -0
 781               		.cfi_startproc
 782               	/* prologue: function */
 783               	/* frame size = 0 */
 784               	/* stack size = 0 */
 785               	.L__stack_usage = 0
 189:./tmk_core/common/action_util.c **** void add_macro_mods(uint8_t mods) { macro_mods |= mods; }
 786               		.loc 1 189 32 view .LVU170
 189:./tmk_core/common/action_util.c **** void add_macro_mods(uint8_t mods) { macro_mods |= mods; }
 787               		.loc 1 189 1 is_stmt 0 view .LVU171
 788 0000 8091 0000 		lds r24,macro_mods
 789               	/* epilogue start */
 790 0004 0895      		ret
 791               		.cfi_endproc
 792               	.LFE130:
 794               		.section	.text.add_macro_mods,"ax",@progbits
 795               	.global	add_macro_mods
 797               	add_macro_mods:
 798               	.LVL40:
 799               	.LFB131:
 190:./tmk_core/common/action_util.c **** void del_macro_mods(uint8_t mods) { macro_mods &= ~mods; }
 800               		.loc 1 190 35 is_stmt 1 view -0
 801               		.cfi_startproc
 802               	/* prologue: function */
 803               	/* frame size = 0 */
 804               	/* stack size = 0 */
 805               	.L__stack_usage = 0
 190:./tmk_core/common/action_util.c **** void del_macro_mods(uint8_t mods) { macro_mods &= ~mods; }
 806               		.loc 1 190 37 view .LVU173
 190:./tmk_core/common/action_util.c **** void del_macro_mods(uint8_t mods) { macro_mods &= ~mods; }
 807               		.loc 1 190 48 is_stmt 0 view .LVU174
 808 0000 9091 0000 		lds r25,macro_mods
 809 0004 892B      		or r24,r25
 810               	.LVL41:
 190:./tmk_core/common/action_util.c **** void del_macro_mods(uint8_t mods) { macro_mods &= ~mods; }
 811               		.loc 1 190 48 view .LVU175
 812 0006 8093 0000 		sts macro_mods,r24
 813               	/* epilogue start */
 190:./tmk_core/common/action_util.c **** void del_macro_mods(uint8_t mods) { macro_mods &= ~mods; }
 814               		.loc 1 190 1 view .LVU176
 815 000a 0895      		ret
 816               		.cfi_endproc
 817               	.LFE131:
 819               		.section	.text.del_macro_mods,"ax",@progbits
 820               	.global	del_macro_mods
 822               	del_macro_mods:
 823               	.LVL42:
 824               	.LFB132:
 191:./tmk_core/common/action_util.c **** void set_macro_mods(uint8_t mods) { macro_mods = mods; }
 825               		.loc 1 191 35 is_stmt 1 view -0
 826               		.cfi_startproc
 827               	/* prologue: function */
 828               	/* frame size = 0 */
 829               	/* stack size = 0 */
 830               	.L__stack_usage = 0
 191:./tmk_core/common/action_util.c **** void set_macro_mods(uint8_t mods) { macro_mods = mods; }
 831               		.loc 1 191 37 view .LVU178
 191:./tmk_core/common/action_util.c **** void set_macro_mods(uint8_t mods) { macro_mods = mods; }
 832               		.loc 1 191 48 is_stmt 0 view .LVU179
 833 0000 8095      		com r24
 834               	.LVL43:
 191:./tmk_core/common/action_util.c **** void set_macro_mods(uint8_t mods) { macro_mods = mods; }
 835               		.loc 1 191 48 view .LVU180
 836 0002 9091 0000 		lds r25,macro_mods
 837 0006 9823      		and r25,r24
 838 0008 9093 0000 		sts macro_mods,r25
 839               	/* epilogue start */
 191:./tmk_core/common/action_util.c **** void set_macro_mods(uint8_t mods) { macro_mods = mods; }
 840               		.loc 1 191 1 view .LVU181
 841 000c 0895      		ret
 842               		.cfi_endproc
 843               	.LFE132:
 845               		.section	.text.set_macro_mods,"ax",@progbits
 846               	.global	set_macro_mods
 848               	set_macro_mods:
 849               	.LVL44:
 850               	.LFB133:
 192:./tmk_core/common/action_util.c **** void clear_macro_mods(void) { macro_mods = 0; }
 851               		.loc 1 192 35 is_stmt 1 view -0
 852               		.cfi_startproc
 853               	/* prologue: function */
 854               	/* frame size = 0 */
 855               	/* stack size = 0 */
 856               	.L__stack_usage = 0
 192:./tmk_core/common/action_util.c **** void clear_macro_mods(void) { macro_mods = 0; }
 857               		.loc 1 192 37 view .LVU183
 192:./tmk_core/common/action_util.c **** void clear_macro_mods(void) { macro_mods = 0; }
 858               		.loc 1 192 48 is_stmt 0 view .LVU184
 859 0000 8093 0000 		sts macro_mods,r24
 860               	/* epilogue start */
 192:./tmk_core/common/action_util.c **** void clear_macro_mods(void) { macro_mods = 0; }
 861               		.loc 1 192 1 view .LVU185
 862 0004 0895      		ret
 863               		.cfi_endproc
 864               	.LFE133:
 866               		.section	.text.clear_macro_mods,"ax",@progbits
 867               	.global	clear_macro_mods
 869               	clear_macro_mods:
 870               	.LFB134:
 193:./tmk_core/common/action_util.c **** 
 871               		.loc 1 193 29 is_stmt 1 view -0
 872               		.cfi_startproc
 873               	/* prologue: function */
 874               	/* frame size = 0 */
 875               	/* stack size = 0 */
 876               	.L__stack_usage = 0
 193:./tmk_core/common/action_util.c **** 
 877               		.loc 1 193 31 view .LVU187
 193:./tmk_core/common/action_util.c **** 
 878               		.loc 1 193 42 is_stmt 0 view .LVU188
 879 0000 1092 0000 		sts macro_mods,__zero_reg__
 880               	/* epilogue start */
 193:./tmk_core/common/action_util.c **** 
 881               		.loc 1 193 1 view .LVU189
 882 0004 0895      		ret
 883               		.cfi_endproc
 884               	.LFE134:
 886               		.section	.text.set_oneshot_mods,"ax",@progbits
 887               	.global	set_oneshot_mods
 889               	set_oneshot_mods:
 890               	.LVL45:
 891               	.LFB135:
 198:./tmk_core/common/action_util.c ****     oneshot_mods = mods;
 892               		.loc 1 198 1 is_stmt 1 view -0
 893               		.cfi_startproc
 894               	/* prologue: function */
 895               	/* frame size = 0 */
 896               	/* stack size = 0 */
 897               	.L__stack_usage = 0
 199:./tmk_core/common/action_util.c **** #if (defined(ONESHOT_TIMEOUT) && (ONESHOT_TIMEOUT > 0))
 898               		.loc 1 199 5 view .LVU191
 199:./tmk_core/common/action_util.c **** #if (defined(ONESHOT_TIMEOUT) && (ONESHOT_TIMEOUT > 0))
 899               		.loc 1 199 18 is_stmt 0 view .LVU192
 900 0000 8093 0000 		sts oneshot_mods,r24
 901               	/* epilogue start */
 203:./tmk_core/common/action_util.c **** void clear_oneshot_mods(void)
 902               		.loc 1 203 1 view .LVU193
 903 0004 0895      		ret
 904               		.cfi_endproc
 905               	.LFE135:
 907               		.section	.text.clear_oneshot_mods,"ax",@progbits
 908               	.global	clear_oneshot_mods
 910               	clear_oneshot_mods:
 911               	.LFB136:
 205:./tmk_core/common/action_util.c ****     oneshot_mods = 0;
 912               		.loc 1 205 1 is_stmt 1 view -0
 913               		.cfi_startproc
 914               	/* prologue: function */
 915               	/* frame size = 0 */
 916               	/* stack size = 0 */
 917               	.L__stack_usage = 0
 206:./tmk_core/common/action_util.c **** #if (defined(ONESHOT_TIMEOUT) && (ONESHOT_TIMEOUT > 0))
 918               		.loc 1 206 5 view .LVU195
 206:./tmk_core/common/action_util.c **** #if (defined(ONESHOT_TIMEOUT) && (ONESHOT_TIMEOUT > 0))
 919               		.loc 1 206 18 is_stmt 0 view .LVU196
 920 0000 1092 0000 		sts oneshot_mods,__zero_reg__
 921               	/* epilogue start */
 210:./tmk_core/common/action_util.c **** uint8_t get_oneshot_mods(void)
 922               		.loc 1 210 1 view .LVU197
 923 0004 0895      		ret
 924               		.cfi_endproc
 925               	.LFE136:
 927               		.section	.text.get_oneshot_mods,"ax",@progbits
 928               	.global	get_oneshot_mods
 930               	get_oneshot_mods:
 931               	.LFB137:
 212:./tmk_core/common/action_util.c ****     return oneshot_mods;
 932               		.loc 1 212 1 is_stmt 1 view -0
 933               		.cfi_startproc
 934               	/* prologue: function */
 935               	/* frame size = 0 */
 936               	/* stack size = 0 */
 937               	.L__stack_usage = 0
 213:./tmk_core/common/action_util.c **** }
 938               		.loc 1 213 5 view .LVU199
 214:./tmk_core/common/action_util.c **** #endif
 939               		.loc 1 214 1 is_stmt 0 view .LVU200
 940 0000 8091 0000 		lds r24,oneshot_mods
 941               	/* epilogue start */
 942 0004 0895      		ret
 943               		.cfi_endproc
 944               	.LFE137:
 946               		.section	.text.has_anykey,"ax",@progbits
 947               	.global	has_anykey
 949               	has_anykey:
 950               	.LFB138:
 221:./tmk_core/common/action_util.c ****     uint8_t cnt = 0;
 951               		.loc 1 221 1 is_stmt 1 view -0
 952               		.cfi_startproc
 953               	/* prologue: function */
 954               	/* frame size = 0 */
 955               	/* stack size = 0 */
 956               	.L__stack_usage = 0
 222:./tmk_core/common/action_util.c ****     for (uint8_t i = 1; i < KEYBOARD_REPORT_SIZE; i++) {
 957               		.loc 1 222 5 view .LVU202
 958               	.LVL46:
 223:./tmk_core/common/action_util.c ****         if (keyboard_report->raw[i])
 959               		.loc 1 223 5 view .LVU203
 960               	.LBB35:
 223:./tmk_core/common/action_util.c ****         if (keyboard_report->raw[i])
 961               		.loc 1 223 10 view .LVU204
 223:./tmk_core/common/action_util.c ****         if (keyboard_report->raw[i])
 962               		.loc 1 223 25 view .LVU205
 224:./tmk_core/common/action_util.c ****             cnt++;
 963               		.loc 1 224 28 is_stmt 0 view .LVU206
 964 0000 2091 0000 		lds r18,keyboard_report
 965 0004 3091 0000 		lds r19,keyboard_report+1
 966 0008 F901      		movw r30,r18
 967 000a 3196      		adiw r30,1
 968 000c 205E      		subi r18,-32
 969 000e 3F4F      		sbci r19,-1
 970               	.LBE35:
 222:./tmk_core/common/action_util.c ****     for (uint8_t i = 1; i < KEYBOARD_REPORT_SIZE; i++) {
 971               		.loc 1 222 13 view .LVU207
 972 0010 80E0      		ldi r24,0
 973               	.LVL47:
 974               	.L61:
 975               	.LBB36:
 224:./tmk_core/common/action_util.c ****             cnt++;
 976               		.loc 1 224 9 is_stmt 1 view .LVU208
 224:./tmk_core/common/action_util.c ****             cnt++;
 977               		.loc 1 224 33 is_stmt 0 view .LVU209
 978 0012 9191      		ld r25,Z+
 979               	.LVL48:
 224:./tmk_core/common/action_util.c ****             cnt++;
 980               		.loc 1 224 12 view .LVU210
 981 0014 9111      		cpse r25,__zero_reg__
 225:./tmk_core/common/action_util.c ****     }
 982               		.loc 1 225 13 is_stmt 1 view .LVU211
 225:./tmk_core/common/action_util.c ****     }
 983               		.loc 1 225 16 is_stmt 0 view .LVU212
 984 0016 8F5F      		subi r24,lo8(-(1))
 985               	.LVL49:
 986               	.L60:
 223:./tmk_core/common/action_util.c ****         if (keyboard_report->raw[i])
 987               		.loc 1 223 51 is_stmt 1 discriminator 2 view .LVU213
 223:./tmk_core/common/action_util.c ****         if (keyboard_report->raw[i])
 988               		.loc 1 223 25 discriminator 2 view .LVU214
 223:./tmk_core/common/action_util.c ****         if (keyboard_report->raw[i])
 989               		.loc 1 223 5 is_stmt 0 discriminator 2 view .LVU215
 990 0018 E217      		cp r30,r18
 991 001a F307      		cpc r31,r19
 992 001c 01F4      		brne .L61
 993               	/* epilogue start */
 223:./tmk_core/common/action_util.c ****         if (keyboard_report->raw[i])
 994               		.loc 1 223 5 discriminator 2 view .LVU216
 995               	.LBE36:
 228:./tmk_core/common/action_util.c **** 
 996               		.loc 1 228 1 view .LVU217
 997 001e 0895      		ret
 998               		.cfi_endproc
 999               	.LFE138:
 1001               		.section	.text.send_keyboard_report,"ax",@progbits
 1002               	.global	send_keyboard_report
 1004               	send_keyboard_report:
 1005               	.LFB116:
 120:./tmk_core/common/action_util.c ****     keyboard_report->mods  = real_mods;
 1006               		.loc 1 120 33 is_stmt 1 view -0
 1007               		.cfi_startproc
 1008               	/* prologue: function */
 1009               	/* frame size = 0 */
 1010               	/* stack size = 0 */
 1011               	.L__stack_usage = 0
 121:./tmk_core/common/action_util.c ****     keyboard_report->mods |= weak_mods;
 1012               		.loc 1 121 5 view .LVU219
 121:./tmk_core/common/action_util.c ****     keyboard_report->mods |= weak_mods;
 1013               		.loc 1 121 20 is_stmt 0 view .LVU220
 1014 0000 E091 0000 		lds r30,keyboard_report
 1015 0004 F091 0000 		lds r31,keyboard_report+1
 121:./tmk_core/common/action_util.c ****     keyboard_report->mods |= weak_mods;
 1016               		.loc 1 121 28 view .LVU221
 1017 0008 8091 0000 		lds r24,real_mods
 1018 000c 8083      		st Z,r24
 122:./tmk_core/common/action_util.c ****     keyboard_report->mods |= macro_mods;
 1019               		.loc 1 122 5 is_stmt 1 view .LVU222
 122:./tmk_core/common/action_util.c ****     keyboard_report->mods |= macro_mods;
 1020               		.loc 1 122 27 is_stmt 0 view .LVU223
 1021 000e E091 0000 		lds r30,keyboard_report
 1022 0012 F091 0000 		lds r31,keyboard_report+1
 1023 0016 8081      		ld r24,Z
 1024 0018 9091 0000 		lds r25,weak_mods
 1025 001c 892B      		or r24,r25
 1026 001e 8083      		st Z,r24
 123:./tmk_core/common/action_util.c **** #ifndef NO_ACTION_ONESHOT
 1027               		.loc 1 123 5 is_stmt 1 view .LVU224
 123:./tmk_core/common/action_util.c **** #ifndef NO_ACTION_ONESHOT
 1028               		.loc 1 123 27 is_stmt 0 view .LVU225
 1029 0020 E091 0000 		lds r30,keyboard_report
 1030 0024 F091 0000 		lds r31,keyboard_report+1
 1031 0028 8081      		ld r24,Z
 1032 002a 9091 0000 		lds r25,macro_mods
 1033 002e 892B      		or r24,r25
 1034 0030 8083      		st Z,r24
 125:./tmk_core/common/action_util.c **** #if (defined(ONESHOT_TIMEOUT) && (ONESHOT_TIMEOUT > 0))
 1035               		.loc 1 125 5 is_stmt 1 view .LVU226
 125:./tmk_core/common/action_util.c **** #if (defined(ONESHOT_TIMEOUT) && (ONESHOT_TIMEOUT > 0))
 1036               		.loc 1 125 9 is_stmt 0 view .LVU227
 1037 0032 9091 0000 		lds r25,oneshot_mods
 125:./tmk_core/common/action_util.c **** #if (defined(ONESHOT_TIMEOUT) && (ONESHOT_TIMEOUT > 0))
 1038               		.loc 1 125 8 view .LVU228
 1039 0036 9923      		tst r25
 1040 0038 01F0      		breq .L68
 132:./tmk_core/common/action_util.c ****         if (has_anykey()) {
 1041               		.loc 1 132 9 is_stmt 1 view .LVU229
 132:./tmk_core/common/action_util.c ****         if (has_anykey()) {
 1042               		.loc 1 132 31 is_stmt 0 view .LVU230
 1043 003a E091 0000 		lds r30,keyboard_report
 1044 003e F091 0000 		lds r31,keyboard_report+1
 1045 0042 8081      		ld r24,Z
 1046 0044 892B      		or r24,r25
 1047 0046 8083      		st Z,r24
 133:./tmk_core/common/action_util.c ****             clear_oneshot_mods();
 1048               		.loc 1 133 9 is_stmt 1 view .LVU231
 133:./tmk_core/common/action_util.c ****             clear_oneshot_mods();
 1049               		.loc 1 133 13 is_stmt 0 view .LVU232
 1050 0048 0E94 0000 		call has_anykey
 1051               	.LVL50:
 133:./tmk_core/common/action_util.c ****             clear_oneshot_mods();
 1052               		.loc 1 133 12 view .LVU233
 1053 004c 8111      		cpse r24,__zero_reg__
 134:./tmk_core/common/action_util.c ****         }
 1054               		.loc 1 134 13 is_stmt 1 view .LVU234
 1055               	.LBB39:
 1056               	.LBI39:
 204:./tmk_core/common/action_util.c **** {
 1057               		.loc 1 204 6 view .LVU235
 1058               	.LBB40:
 206:./tmk_core/common/action_util.c **** #if (defined(ONESHOT_TIMEOUT) && (ONESHOT_TIMEOUT > 0))
 1059               		.loc 1 206 5 view .LVU236
 206:./tmk_core/common/action_util.c **** #if (defined(ONESHOT_TIMEOUT) && (ONESHOT_TIMEOUT > 0))
 1060               		.loc 1 206 18 is_stmt 0 view .LVU237
 1061 004e 1092 0000 		sts oneshot_mods,__zero_reg__
 1062               	.L68:
 1063               	.LBE40:
 1064               	.LBE39:
 139:./tmk_core/common/action_util.c **** }
 1065               		.loc 1 139 5 is_stmt 1 view .LVU238
 1066 0052 8091 0000 		lds r24,keyboard_report
 1067 0056 9091 0000 		lds r25,keyboard_report+1
 1068 005a 0C94 0000 		jmp host_keyboard_send
 1069               	.LVL51:
 1070               		.cfi_endproc
 1071               	.LFE116:
 1073               		.section	.text.has_anymod,"ax",@progbits
 1074               	.global	has_anymod
 1076               	has_anymod:
 1077               	.LFB139:
 231:./tmk_core/common/action_util.c ****     return bitpop(real_mods);
 1078               		.loc 1 231 1 view -0
 1079               		.cfi_startproc
 1080               	/* prologue: function */
 1081               	/* frame size = 0 */
 1082               	/* stack size = 0 */
 1083               	.L__stack_usage = 0
 232:./tmk_core/common/action_util.c **** }
 1084               		.loc 1 232 5 view .LVU240
 232:./tmk_core/common/action_util.c **** }
 1085               		.loc 1 232 12 is_stmt 0 view .LVU241
 1086 0000 8091 0000 		lds r24,real_mods
 1087 0004 0C94 0000 		jmp bitpop
 1088               	.LVL52:
 1089               		.cfi_endproc
 1090               	.LFE139:
 1092               		.section	.text.get_first_key,"ax",@progbits
 1093               	.global	get_first_key
 1095               	get_first_key:
 1096               	.LFB140:
 236:./tmk_core/common/action_util.c **** #ifdef NKRO_ENABLE
 1097               		.loc 1 236 1 is_stmt 1 view -0
 1098               		.cfi_startproc
 1099 0000 CF93      		push r28
 1100               	.LCFI0:
 1101               		.cfi_def_cfa_offset 3
 1102               		.cfi_offset 28, -2
 1103 0002 DF93      		push r29
 1104               	.LCFI1:
 1105               		.cfi_def_cfa_offset 4
 1106               		.cfi_offset 29, -3
 1107               	/* prologue: function */
 1108               	/* frame size = 0 */
 1109               	/* stack size = 2 */
 1110               	.L__stack_usage = 2
 238:./tmk_core/common/action_util.c ****         uint8_t i = 0;
 1111               		.loc 1 238 5 view .LVU243
 1112 0004 E091 0000 		lds r30,keyboard_report
 1113 0008 F091 0000 		lds r31,keyboard_report+1
 238:./tmk_core/common/action_util.c ****         uint8_t i = 0;
 1114               		.loc 1 238 8 is_stmt 0 view .LVU244
 1115 000c 8091 0000 		lds r24,keyboard_protocol
 1116 0010 8823      		tst r24
 1117 0012 01F0      		breq .L75
 238:./tmk_core/common/action_util.c ****         uint8_t i = 0;
 1118               		.loc 1 238 27 discriminator 1 view .LVU245
 1119 0014 8091 0000 		lds r24,keymap_config
 1120 0018 DF01      		movw r26,r30
 1121 001a 1196      		adiw r26,1
 1122               	.LBB41:
 239:./tmk_core/common/action_util.c ****         for (; i < KEYBOARD_REPORT_BITS && !keyboard_report->nkro.bits[i]; i++)
 1123               		.loc 1 239 17 discriminator 1 view .LVU246
 1124 001c C0E0      		ldi r28,0
 1125               	.LBE41:
 238:./tmk_core/common/action_util.c ****         uint8_t i = 0;
 1126               		.loc 1 238 27 discriminator 1 view .LVU247
 1127 001e 87FD      		sbrc r24,7
 1128 0020 00C0      		rjmp .L76
 1129               	.L75:
 255:./tmk_core/common/action_util.c **** #endif
 1130               		.loc 1 255 5 is_stmt 1 view .LVU248
 255:./tmk_core/common/action_util.c **** #endif
 1131               		.loc 1 255 33 is_stmt 0 view .LVU249
 1132 0022 8281      		ldd r24,Z+2
 1133 0024 00C0      		rjmp .L74
 1134               	.LVL53:
 1135               	.L78:
 1136               	.LBB42:
 241:./tmk_core/common/action_util.c ****         return i<<3 | biton(keyboard_report->nkro.bits[i]);
 1137               		.loc 1 241 13 is_stmt 1 discriminator 3 view .LVU250
 240:./tmk_core/common/action_util.c ****             ;
 1138               		.loc 1 240 76 discriminator 3 view .LVU251
 240:./tmk_core/common/action_util.c ****             ;
 1139               		.loc 1 240 77 is_stmt 0 discriminator 3 view .LVU252
 1140 0026 CF5F      		subi r28,lo8(-(1))
 1141               	.LVL54:
 240:./tmk_core/common/action_util.c ****             ;
 1142               		.loc 1 240 16 is_stmt 1 discriminator 3 view .LVU253
 240:./tmk_core/common/action_util.c ****             ;
 1143               		.loc 1 240 9 is_stmt 0 discriminator 3 view .LVU254
 1144 0028 CF31      		cpi r28,lo8(31)
 1145 002a 01F0      		breq .L77
 1146               	.LVL55:
 1147               	.L76:
 240:./tmk_core/common/action_util.c ****             ;
 1148               		.loc 1 240 71 discriminator 2 view .LVU255
 1149 002c 8D91      		ld r24,X+
 240:./tmk_core/common/action_util.c ****             ;
 1150               		.loc 1 240 41 discriminator 2 view .LVU256
 1151 002e 8823      		tst r24
 1152 0030 01F0      		breq .L78
 1153               	.L77:
 242:./tmk_core/common/action_util.c ****     }
 1154               		.loc 1 242 9 is_stmt 1 view .LVU257
 242:./tmk_core/common/action_util.c ****     }
 1155               		.loc 1 242 17 is_stmt 0 view .LVU258
 1156 0032 D0E0      		ldi r29,0
 242:./tmk_core/common/action_util.c ****     }
 1157               		.loc 1 242 23 view .LVU259
 1158 0034 EC0F      		add r30,r28
 1159 0036 FD1F      		adc r31,r29
 1160 0038 8181      		ldd r24,Z+1
 1161 003a 0E94 0000 		call biton
 1162               	.LVL56:
 242:./tmk_core/common/action_util.c ****     }
 1163               		.loc 1 242 17 view .LVU260
 1164 003e 93E0      		ldi r25,3
 1165               		1:
 1166 0040 CC0F      		lsl r28
 1167 0042 DD1F      		rol r29
 1168 0044 9A95      		dec r25
 1169 0046 01F4      		brne 1b
 1170               	.LVL57:
 242:./tmk_core/common/action_util.c ****     }
 1171               		.loc 1 242 21 view .LVU261
 1172 0048 8C2B      		or r24,r28
 1173               	.L74:
 1174               	/* epilogue start */
 242:./tmk_core/common/action_util.c ****     }
 1175               		.loc 1 242 21 view .LVU262
 1176               	.LBE42:
 257:./tmk_core/common/action_util.c **** 
 1177               		.loc 1 257 1 view .LVU263
 1178 004a DF91      		pop r29
 1179 004c CF91      		pop r28
 1180 004e 0895      		ret
 1181               		.cfi_endproc
 1182               	.LFE140:
 1184               		.section	.bss.oneshot_layer_data,"aw",@nobits
 1187               	oneshot_layer_data:
 1188 0000 00        		.zero	1
 1189               		.section	.bss.oneshot_locked_mods,"aw",@nobits
 1192               	oneshot_locked_mods:
 1193 0000 00        		.zero	1
 1194               		.section	.bss.oneshot_mods,"aw",@nobits
 1197               	oneshot_mods:
 1198 0000 00        		.zero	1
 1199               	.global	keyboard_report
 1200               		.section	.data.keyboard_report,"aw"
 1203               	keyboard_report:
 1204 0000 0000      		.word	__compound_literal.0
 1205               		.section	.bss.__compound_literal.0,"aw",@nobits
 1208               	__compound_literal.0:
 1209 0000 0000 0000 		.zero	32
 1209      0000 0000 
 1209      0000 0000 
 1209      0000 0000 
 1209      0000 0000 
 1210               		.section	.bss.macro_mods,"aw",@nobits
 1213               	macro_mods:
 1214 0000 00        		.zero	1
 1215               		.section	.bss.weak_mods,"aw",@nobits
 1218               	weak_mods:
 1219 0000 00        		.zero	1
 1220               		.section	.bss.real_mods,"aw",@nobits
 1223               	real_mods:
 1224 0000 00        		.zero	1
 1225               		.text
 1226               	.Letext0:
 1227               		.file 2 "/usr/local/Cellar/avr-gcc@8/8.5.0_1/avr/include/stdint.h"
 1228               		.file 3 "./tmk_core/protocol/lufa/LUFA-git/LUFA/Drivers/USB/Core/AVR8/../StdRequestType.h"
 1229               		.file 4 "./tmk_core/protocol/lufa/LUFA-git/LUFA/Drivers/USB/Core/AVR8/../DeviceStandardReq.h"
 1230               		.file 5 "./tmk_core/protocol/lufa/LUFA-git/LUFA/Drivers/USB/Core/USBTask.h"
 1231               		.file 6 "./tmk_core/protocol/lufa/LUFA-git/LUFA/Drivers/USB/Core/HostStandardReq.h"
 1232               		.file 7 "/usr/local/Cellar/avr-gcc@8/8.5.0_1/avr/include/stdio.h"
 1233               		.file 8 "./tmk_core/common/report.h"
 1234               		.file 9 "./tmk_core/common/host.h"
 1235               		.file 10 "./tmk_core/common/debug.h"
 1236               		.file 11 "./tmk_core/common/action_util.h"
 1237               		.file 12 "./tmk_core/common/action.h"
 1238               		.file 13 "./tmk_core/common/action_layer.h"
 1239               		.file 14 "./tmk_core/common/timer.h"
 1240               		.file 15 "./quantum/keycode_config.h"
 1241               		.file 16 "./tmk_core/common/util.h"
DEFINED SYMBOLS
                            *ABS*:00000000 action_util.c
/var/folders/f1/r0m_vh_54tg0jls9tjh4vqkr0000gn/T//ccNATSwE.s:2      *ABS*:0000003e __SP_H__
/var/folders/f1/r0m_vh_54tg0jls9tjh4vqkr0000gn/T//ccNATSwE.s:3      *ABS*:0000003d __SP_L__
/var/folders/f1/r0m_vh_54tg0jls9tjh4vqkr0000gn/T//ccNATSwE.s:4      *ABS*:0000003f __SREG__
/var/folders/f1/r0m_vh_54tg0jls9tjh4vqkr0000gn/T//ccNATSwE.s:5      *ABS*:00000000 __tmp_reg__
/var/folders/f1/r0m_vh_54tg0jls9tjh4vqkr0000gn/T//ccNATSwE.s:6      *ABS*:00000001 __zero_reg__
/var/folders/f1/r0m_vh_54tg0jls9tjh4vqkr0000gn/T//ccNATSwE.s:13     .text.get_oneshot_locked_mods:00000000 get_oneshot_locked_mods
/var/folders/f1/r0m_vh_54tg0jls9tjh4vqkr0000gn/T//ccNATSwE.s:16     .text.get_oneshot_locked_mods:00000000 .Loc.0
/var/folders/f1/r0m_vh_54tg0jls9tjh4vqkr0000gn/T//ccNATSwE.s:17     .text.get_oneshot_locked_mods:00000000 L0
/var/folders/f1/r0m_vh_54tg0jls9tjh4vqkr0000gn/T//ccNATSwE.s:22     .text.get_oneshot_locked_mods:00000000 .Loc.1
/var/folders/f1/r0m_vh_54tg0jls9tjh4vqkr0000gn/T//ccNATSwE.s:23     .text.get_oneshot_locked_mods:00000000 .Loc.2
/var/folders/f1/r0m_vh_54tg0jls9tjh4vqkr0000gn/T//ccNATSwE.s:1192   .bss.oneshot_locked_mods:00000000 oneshot_locked_mods
/var/folders/f1/r0m_vh_54tg0jls9tjh4vqkr0000gn/T//ccNATSwE.s:27     .text.get_oneshot_locked_mods:00000006 L0
/var/folders/f1/r0m_vh_54tg0jls9tjh4vqkr0000gn/T//ccNATSwE.s:33     .text.set_oneshot_locked_mods:00000000 set_oneshot_locked_mods
/var/folders/f1/r0m_vh_54tg0jls9tjh4vqkr0000gn/T//ccNATSwE.s:36     .text.set_oneshot_locked_mods:00000000 .Loc.3
/var/folders/f1/r0m_vh_54tg0jls9tjh4vqkr0000gn/T//ccNATSwE.s:37     .text.set_oneshot_locked_mods:00000000 L0
/var/folders/f1/r0m_vh_54tg0jls9tjh4vqkr0000gn/T//ccNATSwE.s:42     .text.set_oneshot_locked_mods:00000000 .Loc.4
/var/folders/f1/r0m_vh_54tg0jls9tjh4vqkr0000gn/T//ccNATSwE.s:43     .text.set_oneshot_locked_mods:00000000 .Loc.5
/var/folders/f1/r0m_vh_54tg0jls9tjh4vqkr0000gn/T//ccNATSwE.s:46     .text.set_oneshot_locked_mods:00000004 .Loc.6
/var/folders/f1/r0m_vh_54tg0jls9tjh4vqkr0000gn/T//ccNATSwE.s:48     .text.set_oneshot_locked_mods:00000006 L0
/var/folders/f1/r0m_vh_54tg0jls9tjh4vqkr0000gn/T//ccNATSwE.s:54     .text.clear_oneshot_locked_mods:00000000 clear_oneshot_locked_mods
/var/folders/f1/r0m_vh_54tg0jls9tjh4vqkr0000gn/T//ccNATSwE.s:56     .text.clear_oneshot_locked_mods:00000000 .Loc.7
/var/folders/f1/r0m_vh_54tg0jls9tjh4vqkr0000gn/T//ccNATSwE.s:57     .text.clear_oneshot_locked_mods:00000000 L0
/var/folders/f1/r0m_vh_54tg0jls9tjh4vqkr0000gn/T//ccNATSwE.s:62     .text.clear_oneshot_locked_mods:00000000 .Loc.8
/var/folders/f1/r0m_vh_54tg0jls9tjh4vqkr0000gn/T//ccNATSwE.s:63     .text.clear_oneshot_locked_mods:00000000 .Loc.9
/var/folders/f1/r0m_vh_54tg0jls9tjh4vqkr0000gn/T//ccNATSwE.s:66     .text.clear_oneshot_locked_mods:00000004 .Loc.10
/var/folders/f1/r0m_vh_54tg0jls9tjh4vqkr0000gn/T//ccNATSwE.s:68     .text.clear_oneshot_locked_mods:00000006 L0
/var/folders/f1/r0m_vh_54tg0jls9tjh4vqkr0000gn/T//ccNATSwE.s:74     .text.get_oneshot_layer:00000000 get_oneshot_layer
/var/folders/f1/r0m_vh_54tg0jls9tjh4vqkr0000gn/T//ccNATSwE.s:76     .text.get_oneshot_layer:00000000 .Loc.11
/var/folders/f1/r0m_vh_54tg0jls9tjh4vqkr0000gn/T//ccNATSwE.s:77     .text.get_oneshot_layer:00000000 L0
/var/folders/f1/r0m_vh_54tg0jls9tjh4vqkr0000gn/T//ccNATSwE.s:82     .text.get_oneshot_layer:00000000 .Loc.12
/var/folders/f1/r0m_vh_54tg0jls9tjh4vqkr0000gn/T//ccNATSwE.s:83     .text.get_oneshot_layer:00000000 .Loc.13
/var/folders/f1/r0m_vh_54tg0jls9tjh4vqkr0000gn/T//ccNATSwE.s:1187   .bss.oneshot_layer_data:00000000 oneshot_layer_data
/var/folders/f1/r0m_vh_54tg0jls9tjh4vqkr0000gn/T//ccNATSwE.s:85     .text.get_oneshot_layer:00000004 .Loc.14
/var/folders/f1/r0m_vh_54tg0jls9tjh4vqkr0000gn/T//ccNATSwE.s:91     .text.get_oneshot_layer:0000000c L0
/var/folders/f1/r0m_vh_54tg0jls9tjh4vqkr0000gn/T//ccNATSwE.s:97     .text.get_oneshot_layer_state:00000000 get_oneshot_layer_state
/var/folders/f1/r0m_vh_54tg0jls9tjh4vqkr0000gn/T//ccNATSwE.s:99     .text.get_oneshot_layer_state:00000000 .Loc.15
/var/folders/f1/r0m_vh_54tg0jls9tjh4vqkr0000gn/T//ccNATSwE.s:100    .text.get_oneshot_layer_state:00000000 L0
/var/folders/f1/r0m_vh_54tg0jls9tjh4vqkr0000gn/T//ccNATSwE.s:105    .text.get_oneshot_layer_state:00000000 .Loc.16
/var/folders/f1/r0m_vh_54tg0jls9tjh4vqkr0000gn/T//ccNATSwE.s:106    .text.get_oneshot_layer_state:00000000 .Loc.17
/var/folders/f1/r0m_vh_54tg0jls9tjh4vqkr0000gn/T//ccNATSwE.s:108    .text.get_oneshot_layer_state:00000004 .Loc.18
/var/folders/f1/r0m_vh_54tg0jls9tjh4vqkr0000gn/T//ccNATSwE.s:112    .text.get_oneshot_layer_state:00000008 L0
/var/folders/f1/r0m_vh_54tg0jls9tjh4vqkr0000gn/T//ccNATSwE.s:118    .text.set_oneshot_layer:00000000 set_oneshot_layer
/var/folders/f1/r0m_vh_54tg0jls9tjh4vqkr0000gn/T//ccNATSwE.s:121    .text.set_oneshot_layer:00000000 .Loc.19
/var/folders/f1/r0m_vh_54tg0jls9tjh4vqkr0000gn/T//ccNATSwE.s:122    .text.set_oneshot_layer:00000000 L0
/var/folders/f1/r0m_vh_54tg0jls9tjh4vqkr0000gn/T//ccNATSwE.s:127    .text.set_oneshot_layer:00000000 .Loc.20
/var/folders/f1/r0m_vh_54tg0jls9tjh4vqkr0000gn/T//ccNATSwE.s:128    .text.set_oneshot_layer:00000000 .Loc.21
/var/folders/f1/r0m_vh_54tg0jls9tjh4vqkr0000gn/T//ccNATSwE.s:133    .text.set_oneshot_layer:00000008 .Loc.22
/var/folders/f1/r0m_vh_54tg0jls9tjh4vqkr0000gn/T//ccNATSwE.s:136    .text.set_oneshot_layer:0000000a .Loc.23
/var/folders/f1/r0m_vh_54tg0jls9tjh4vqkr0000gn/T//ccNATSwE.s:138    .text.set_oneshot_layer:0000000e .Loc.24
/var/folders/f1/r0m_vh_54tg0jls9tjh4vqkr0000gn/T//ccNATSwE.s:141    .text.set_oneshot_layer:00000012 .Loc.25
/var/folders/f1/r0m_vh_54tg0jls9tjh4vqkr0000gn/T//ccNATSwE.s:142    .text.set_oneshot_layer:00000012 L0
/var/folders/f1/r0m_vh_54tg0jls9tjh4vqkr0000gn/T//ccNATSwE.s:148    .text.reset_oneshot_layer:00000000 reset_oneshot_layer
/var/folders/f1/r0m_vh_54tg0jls9tjh4vqkr0000gn/T//ccNATSwE.s:150    .text.reset_oneshot_layer:00000000 .Loc.26
/var/folders/f1/r0m_vh_54tg0jls9tjh4vqkr0000gn/T//ccNATSwE.s:151    .text.reset_oneshot_layer:00000000 L0
/var/folders/f1/r0m_vh_54tg0jls9tjh4vqkr0000gn/T//ccNATSwE.s:156    .text.reset_oneshot_layer:00000000 .Loc.27
/var/folders/f1/r0m_vh_54tg0jls9tjh4vqkr0000gn/T//ccNATSwE.s:157    .text.reset_oneshot_layer:00000000 .Loc.28
/var/folders/f1/r0m_vh_54tg0jls9tjh4vqkr0000gn/T//ccNATSwE.s:160    .text.reset_oneshot_layer:00000004 .Loc.29
/var/folders/f1/r0m_vh_54tg0jls9tjh4vqkr0000gn/T//ccNATSwE.s:162    .text.reset_oneshot_layer:00000006 L0
/var/folders/f1/r0m_vh_54tg0jls9tjh4vqkr0000gn/T//ccNATSwE.s:168    .text.clear_oneshot_layer_state:00000000 clear_oneshot_layer_state
/var/folders/f1/r0m_vh_54tg0jls9tjh4vqkr0000gn/T//ccNATSwE.s:171    .text.clear_oneshot_layer_state:00000000 .Loc.30
/var/folders/f1/r0m_vh_54tg0jls9tjh4vqkr0000gn/T//ccNATSwE.s:172    .text.clear_oneshot_layer_state:00000000 L0
/var/folders/f1/r0m_vh_54tg0jls9tjh4vqkr0000gn/T//ccNATSwE.s:177    .text.clear_oneshot_layer_state:00000000 .Loc.31
/var/folders/f1/r0m_vh_54tg0jls9tjh4vqkr0000gn/T//ccNATSwE.s:178    .text.clear_oneshot_layer_state:00000000 .Loc.32
/var/folders/f1/r0m_vh_54tg0jls9tjh4vqkr0000gn/T//ccNATSwE.s:181    .text.clear_oneshot_layer_state:00000004 .Loc.33
/var/folders/f1/r0m_vh_54tg0jls9tjh4vqkr0000gn/T//ccNATSwE.s:182    .text.clear_oneshot_layer_state:00000004 .Loc.34
/var/folders/f1/r0m_vh_54tg0jls9tjh4vqkr0000gn/T//ccNATSwE.s:185    .text.clear_oneshot_layer_state:00000006 .Loc.35
/var/folders/f1/r0m_vh_54tg0jls9tjh4vqkr0000gn/T//ccNATSwE.s:188    .text.clear_oneshot_layer_state:00000008 .Loc.36
/var/folders/f1/r0m_vh_54tg0jls9tjh4vqkr0000gn/T//ccNATSwE.s:190    .text.clear_oneshot_layer_state:0000000c .Loc.37
/var/folders/f1/r0m_vh_54tg0jls9tjh4vqkr0000gn/T//ccNATSwE.s:193    .text.clear_oneshot_layer_state:0000000c .Loc.38
/var/folders/f1/r0m_vh_54tg0jls9tjh4vqkr0000gn/T//ccNATSwE.s:195    .text.clear_oneshot_layer_state:0000000c .Loc.39
/var/folders/f1/r0m_vh_54tg0jls9tjh4vqkr0000gn/T//ccNATSwE.s:196    .text.clear_oneshot_layer_state:0000000c .Loc.40
/var/folders/f1/r0m_vh_54tg0jls9tjh4vqkr0000gn/T//ccNATSwE.s:201    .text.clear_oneshot_layer_state:00000010 .Loc.41
/var/folders/f1/r0m_vh_54tg0jls9tjh4vqkr0000gn/T//ccNATSwE.s:203    .text.clear_oneshot_layer_state:00000012 .Loc.42
/var/folders/f1/r0m_vh_54tg0jls9tjh4vqkr0000gn/T//ccNATSwE.s:208    .text.clear_oneshot_layer_state:0000001a .Loc.43
/var/folders/f1/r0m_vh_54tg0jls9tjh4vqkr0000gn/T//ccNATSwE.s:212    .text.clear_oneshot_layer_state:00000020 .Loc.44
/var/folders/f1/r0m_vh_54tg0jls9tjh4vqkr0000gn/T//ccNATSwE.s:215    .text.clear_oneshot_layer_state:00000020 .Loc.45
/var/folders/f1/r0m_vh_54tg0jls9tjh4vqkr0000gn/T//ccNATSwE.s:217    .text.clear_oneshot_layer_state:00000020 .Loc.46
/var/folders/f1/r0m_vh_54tg0jls9tjh4vqkr0000gn/T//ccNATSwE.s:220    .text.clear_oneshot_layer_state:00000020 .Loc.47
/var/folders/f1/r0m_vh_54tg0jls9tjh4vqkr0000gn/T//ccNATSwE.s:228    .text.clear_oneshot_layer_state:0000002a .Loc.48
/var/folders/f1/r0m_vh_54tg0jls9tjh4vqkr0000gn/T//ccNATSwE.s:230    .text.clear_oneshot_layer_state:0000002c L0
/var/folders/f1/r0m_vh_54tg0jls9tjh4vqkr0000gn/T//ccNATSwE.s:236    .text.is_oneshot_layer_active:00000000 is_oneshot_layer_active
/var/folders/f1/r0m_vh_54tg0jls9tjh4vqkr0000gn/T//ccNATSwE.s:238    .text.is_oneshot_layer_active:00000000 .Loc.49
/var/folders/f1/r0m_vh_54tg0jls9tjh4vqkr0000gn/T//ccNATSwE.s:239    .text.is_oneshot_layer_active:00000000 L0
/var/folders/f1/r0m_vh_54tg0jls9tjh4vqkr0000gn/T//ccNATSwE.s:244    .text.is_oneshot_layer_active:00000000 .Loc.50
/var/folders/f1/r0m_vh_54tg0jls9tjh4vqkr0000gn/T//ccNATSwE.s:247    .text.is_oneshot_layer_active:00000000 .Loc.51
/var/folders/f1/r0m_vh_54tg0jls9tjh4vqkr0000gn/T//ccNATSwE.s:249    .text.is_oneshot_layer_active:00000000 .Loc.52
/var/folders/f1/r0m_vh_54tg0jls9tjh4vqkr0000gn/T//ccNATSwE.s:250    .text.is_oneshot_layer_active:00000000 .Loc.53
/var/folders/f1/r0m_vh_54tg0jls9tjh4vqkr0000gn/T//ccNATSwE.s:255    .text.is_oneshot_layer_active:00000006 .Loc.54
/var/folders/f1/r0m_vh_54tg0jls9tjh4vqkr0000gn/T//ccNATSwE.s:261    .text.is_oneshot_layer_active:0000000c .Loc.55
/var/folders/f1/r0m_vh_54tg0jls9tjh4vqkr0000gn/T//ccNATSwE.s:263    .text.is_oneshot_layer_active:0000000e L0
/var/folders/f1/r0m_vh_54tg0jls9tjh4vqkr0000gn/T//ccNATSwE.s:269    .text.add_key:00000000 add_key
/var/folders/f1/r0m_vh_54tg0jls9tjh4vqkr0000gn/T//ccNATSwE.s:272    .text.add_key:00000000 .Loc.56
/var/folders/f1/r0m_vh_54tg0jls9tjh4vqkr0000gn/T//ccNATSwE.s:273    .text.add_key:00000000 L0
/var/folders/f1/r0m_vh_54tg0jls9tjh4vqkr0000gn/T//ccNATSwE.s:278    .text.add_key:00000000 .Loc.57
/var/folders/f1/r0m_vh_54tg0jls9tjh4vqkr0000gn/T//ccNATSwE.s:279    .text.add_key:00000000 .Loc.58
/var/folders/f1/r0m_vh_54tg0jls9tjh4vqkr0000gn/T//ccNATSwE.s:283    .text.add_key:00000008 .Loc.59
/var/folders/f1/r0m_vh_54tg0jls9tjh4vqkr0000gn/T//ccNATSwE.s:287    .text.add_key:00000010 .Loc.60
/var/folders/f1/r0m_vh_54tg0jls9tjh4vqkr0000gn/T//ccNATSwE.s:291    .text.add_key:00000010 .Loc.61
/var/folders/f1/r0m_vh_54tg0jls9tjh4vqkr0000gn/T//ccNATSwE.s:293    .text.add_key:00000010 .Loc.62
/var/folders/f1/r0m_vh_54tg0jls9tjh4vqkr0000gn/T//ccNATSwE.s:294    .text.add_key:00000010 .Loc.63
/var/folders/f1/r0m_vh_54tg0jls9tjh4vqkr0000gn/T//ccNATSwE.s:299    .text.add_key:00000018 .Loc.64
/var/folders/f1/r0m_vh_54tg0jls9tjh4vqkr0000gn/T//ccNATSwE.s:302    .text.add_key:0000001c .Loc.65
/var/folders/f1/r0m_vh_54tg0jls9tjh4vqkr0000gn/T//ccNATSwE.s:303    .text.add_key:0000001c .Loc.66
/var/folders/f1/r0m_vh_54tg0jls9tjh4vqkr0000gn/T//ccNATSwE.s:1203   .data.keyboard_report:00000000 keyboard_report
/var/folders/f1/r0m_vh_54tg0jls9tjh4vqkr0000gn/T//ccNATSwE.s:309    .text.add_key:0000002a .Loc.67
/var/folders/f1/r0m_vh_54tg0jls9tjh4vqkr0000gn/T//ccNATSwE.s:312    .text.add_key:0000002c .Loc.68
/var/folders/f1/r0m_vh_54tg0jls9tjh4vqkr0000gn/T//ccNATSwE.s:321    .text.add_key:00000038 .Loc.69
/var/folders/f1/r0m_vh_54tg0jls9tjh4vqkr0000gn/T//ccNATSwE.s:328    .text.add_key:00000040 .Loc.70
/var/folders/f1/r0m_vh_54tg0jls9tjh4vqkr0000gn/T//ccNATSwE.s:333    .text.add_key:00000040 .Loc.71
/var/folders/f1/r0m_vh_54tg0jls9tjh4vqkr0000gn/T//ccNATSwE.s:342    .text.add_key:00000050 .Loc.72
/var/folders/f1/r0m_vh_54tg0jls9tjh4vqkr0000gn/T//ccNATSwE.s:343    .text.add_key:00000050 .Loc.73
/var/folders/f1/r0m_vh_54tg0jls9tjh4vqkr0000gn/T//ccNATSwE.s:345    .text.add_key:00000052 .Loc.74
/var/folders/f1/r0m_vh_54tg0jls9tjh4vqkr0000gn/T//ccNATSwE.s:348    .text.add_key:00000056 .Loc.75
/var/folders/f1/r0m_vh_54tg0jls9tjh4vqkr0000gn/T//ccNATSwE.s:349    .text.add_key:00000056 .Loc.76
/var/folders/f1/r0m_vh_54tg0jls9tjh4vqkr0000gn/T//ccNATSwE.s:352    .text.add_key:0000005a .Loc.77
/var/folders/f1/r0m_vh_54tg0jls9tjh4vqkr0000gn/T//ccNATSwE.s:358    .text.add_key:00000060 .Loc.78
/var/folders/f1/r0m_vh_54tg0jls9tjh4vqkr0000gn/T//ccNATSwE.s:361    .text.add_key:00000062 .Loc.79
/var/folders/f1/r0m_vh_54tg0jls9tjh4vqkr0000gn/T//ccNATSwE.s:362    .text.add_key:00000062 .Loc.80
/var/folders/f1/r0m_vh_54tg0jls9tjh4vqkr0000gn/T//ccNATSwE.s:365    .text.add_key:00000066 .Loc.81
/var/folders/f1/r0m_vh_54tg0jls9tjh4vqkr0000gn/T//ccNATSwE.s:366    .text.add_key:00000066 .Loc.82
/var/folders/f1/r0m_vh_54tg0jls9tjh4vqkr0000gn/T//ccNATSwE.s:367    .text.add_key:00000066 .Loc.83
/var/folders/f1/r0m_vh_54tg0jls9tjh4vqkr0000gn/T//ccNATSwE.s:373    .text.add_key:0000006a .Loc.84
/var/folders/f1/r0m_vh_54tg0jls9tjh4vqkr0000gn/T//ccNATSwE.s:376    .text.add_key:0000006a .Loc.85
/var/folders/f1/r0m_vh_54tg0jls9tjh4vqkr0000gn/T//ccNATSwE.s:382    .text.add_key:0000006c .Loc.86
/var/folders/f1/r0m_vh_54tg0jls9tjh4vqkr0000gn/T//ccNATSwE.s:383    .text.add_key:0000006c .Loc.87
/var/folders/f1/r0m_vh_54tg0jls9tjh4vqkr0000gn/T//ccNATSwE.s:393    .text.add_key:0000007a L0
/var/folders/f1/r0m_vh_54tg0jls9tjh4vqkr0000gn/T//ccNATSwE.s:399    .text.del_key:00000000 del_key
/var/folders/f1/r0m_vh_54tg0jls9tjh4vqkr0000gn/T//ccNATSwE.s:402    .text.del_key:00000000 .Loc.88
/var/folders/f1/r0m_vh_54tg0jls9tjh4vqkr0000gn/T//ccNATSwE.s:403    .text.del_key:00000000 L0
/var/folders/f1/r0m_vh_54tg0jls9tjh4vqkr0000gn/T//ccNATSwE.s:408    .text.del_key:00000000 .Loc.89
/var/folders/f1/r0m_vh_54tg0jls9tjh4vqkr0000gn/T//ccNATSwE.s:409    .text.del_key:00000000 .Loc.90
/var/folders/f1/r0m_vh_54tg0jls9tjh4vqkr0000gn/T//ccNATSwE.s:413    .text.del_key:00000008 .Loc.91
/var/folders/f1/r0m_vh_54tg0jls9tjh4vqkr0000gn/T//ccNATSwE.s:417    .text.del_key:00000010 .Loc.92
/var/folders/f1/r0m_vh_54tg0jls9tjh4vqkr0000gn/T//ccNATSwE.s:421    .text.del_key:00000010 .Loc.93
/var/folders/f1/r0m_vh_54tg0jls9tjh4vqkr0000gn/T//ccNATSwE.s:423    .text.del_key:00000010 .Loc.94
/var/folders/f1/r0m_vh_54tg0jls9tjh4vqkr0000gn/T//ccNATSwE.s:424    .text.del_key:00000010 .Loc.95
/var/folders/f1/r0m_vh_54tg0jls9tjh4vqkr0000gn/T//ccNATSwE.s:429    .text.del_key:00000018 .Loc.96
/var/folders/f1/r0m_vh_54tg0jls9tjh4vqkr0000gn/T//ccNATSwE.s:432    .text.del_key:0000001c .Loc.97
/var/folders/f1/r0m_vh_54tg0jls9tjh4vqkr0000gn/T//ccNATSwE.s:433    .text.del_key:0000001c .Loc.98
/var/folders/f1/r0m_vh_54tg0jls9tjh4vqkr0000gn/T//ccNATSwE.s:439    .text.del_key:0000002a .Loc.99
/var/folders/f1/r0m_vh_54tg0jls9tjh4vqkr0000gn/T//ccNATSwE.s:442    .text.del_key:0000002e .Loc.100
/var/folders/f1/r0m_vh_54tg0jls9tjh4vqkr0000gn/T//ccNATSwE.s:446    .text.del_key:00000032 .Loc.101
/var/folders/f1/r0m_vh_54tg0jls9tjh4vqkr0000gn/T//ccNATSwE.s:453    .text.del_key:0000003a .Loc.102
/var/folders/f1/r0m_vh_54tg0jls9tjh4vqkr0000gn/T//ccNATSwE.s:461    .text.del_key:00000044 .Loc.103
/var/folders/f1/r0m_vh_54tg0jls9tjh4vqkr0000gn/T//ccNATSwE.s:466    .text.del_key:00000044 .Loc.104
/var/folders/f1/r0m_vh_54tg0jls9tjh4vqkr0000gn/T//ccNATSwE.s:475    .text.del_key:00000054 .Loc.105
/var/folders/f1/r0m_vh_54tg0jls9tjh4vqkr0000gn/T//ccNATSwE.s:476    .text.del_key:00000054 .Loc.106
/var/folders/f1/r0m_vh_54tg0jls9tjh4vqkr0000gn/T//ccNATSwE.s:479    .text.del_key:00000056 .Loc.107
/var/folders/f1/r0m_vh_54tg0jls9tjh4vqkr0000gn/T//ccNATSwE.s:482    .text.del_key:0000005a .Loc.108
/var/folders/f1/r0m_vh_54tg0jls9tjh4vqkr0000gn/T//ccNATSwE.s:483    .text.del_key:0000005a .Loc.109
/var/folders/f1/r0m_vh_54tg0jls9tjh4vqkr0000gn/T//ccNATSwE.s:488    .text.del_key:00000060 .Loc.110
/var/folders/f1/r0m_vh_54tg0jls9tjh4vqkr0000gn/T//ccNATSwE.s:490    .text.del_key:00000060 .Loc.111
/var/folders/f1/r0m_vh_54tg0jls9tjh4vqkr0000gn/T//ccNATSwE.s:491    .text.del_key:00000060 .Loc.112
/var/folders/f1/r0m_vh_54tg0jls9tjh4vqkr0000gn/T//ccNATSwE.s:498    .text.del_key:00000066 .Loc.113
/var/folders/f1/r0m_vh_54tg0jls9tjh4vqkr0000gn/T//ccNATSwE.s:501    .text.del_key:00000066 .Loc.114
/var/folders/f1/r0m_vh_54tg0jls9tjh4vqkr0000gn/T//ccNATSwE.s:503    .text.del_key:00000068 L0
/var/folders/f1/r0m_vh_54tg0jls9tjh4vqkr0000gn/T//ccNATSwE.s:509    .text.clear_keys:00000000 clear_keys
/var/folders/f1/r0m_vh_54tg0jls9tjh4vqkr0000gn/T//ccNATSwE.s:511    .text.clear_keys:00000000 .Loc.115
/var/folders/f1/r0m_vh_54tg0jls9tjh4vqkr0000gn/T//ccNATSwE.s:512    .text.clear_keys:00000000 L0
/var/folders/f1/r0m_vh_54tg0jls9tjh4vqkr0000gn/T//ccNATSwE.s:517    .text.clear_keys:00000000 .Loc.116
/var/folders/f1/r0m_vh_54tg0jls9tjh4vqkr0000gn/T//ccNATSwE.s:519    .text.clear_keys:00000000 .Loc.117
/var/folders/f1/r0m_vh_54tg0jls9tjh4vqkr0000gn/T//ccNATSwE.s:521    .text.clear_keys:00000000 .Loc.118
/var/folders/f1/r0m_vh_54tg0jls9tjh4vqkr0000gn/T//ccNATSwE.s:523    .text.clear_keys:00000000 .Loc.119
/var/folders/f1/r0m_vh_54tg0jls9tjh4vqkr0000gn/T//ccNATSwE.s:529    .text.clear_keys:00000004 .Loc.120
/var/folders/f1/r0m_vh_54tg0jls9tjh4vqkr0000gn/T//ccNATSwE.s:530    .text.clear_keys:00000004 .Loc.121
/var/folders/f1/r0m_vh_54tg0jls9tjh4vqkr0000gn/T//ccNATSwE.s:533    .text.clear_keys:0000000c .Loc.122
/var/folders/f1/r0m_vh_54tg0jls9tjh4vqkr0000gn/T//ccNATSwE.s:537    .text.clear_keys:00000012 .Loc.123
/var/folders/f1/r0m_vh_54tg0jls9tjh4vqkr0000gn/T//ccNATSwE.s:539    .text.clear_keys:00000012 .Loc.124
/var/folders/f1/r0m_vh_54tg0jls9tjh4vqkr0000gn/T//ccNATSwE.s:542    .text.clear_keys:00000014 .Loc.125
/var/folders/f1/r0m_vh_54tg0jls9tjh4vqkr0000gn/T//ccNATSwE.s:548    .text.clear_keys:0000001a .Loc.126
/var/folders/f1/r0m_vh_54tg0jls9tjh4vqkr0000gn/T//ccNATSwE.s:550    .text.clear_keys:0000001c L0
/var/folders/f1/r0m_vh_54tg0jls9tjh4vqkr0000gn/T//ccNATSwE.s:556    .text.get_mods:00000000 get_mods
/var/folders/f1/r0m_vh_54tg0jls9tjh4vqkr0000gn/T//ccNATSwE.s:558    .text.get_mods:00000000 .Loc.127
/var/folders/f1/r0m_vh_54tg0jls9tjh4vqkr0000gn/T//ccNATSwE.s:559    .text.get_mods:00000000 L0
/var/folders/f1/r0m_vh_54tg0jls9tjh4vqkr0000gn/T//ccNATSwE.s:564    .text.get_mods:00000000 .Loc.128
/var/folders/f1/r0m_vh_54tg0jls9tjh4vqkr0000gn/T//ccNATSwE.s:565    .text.get_mods:00000000 .Loc.129
/var/folders/f1/r0m_vh_54tg0jls9tjh4vqkr0000gn/T//ccNATSwE.s:1223   .bss.real_mods:00000000 real_mods
/var/folders/f1/r0m_vh_54tg0jls9tjh4vqkr0000gn/T//ccNATSwE.s:569    .text.get_mods:00000006 L0
/var/folders/f1/r0m_vh_54tg0jls9tjh4vqkr0000gn/T//ccNATSwE.s:575    .text.add_mods:00000000 add_mods
/var/folders/f1/r0m_vh_54tg0jls9tjh4vqkr0000gn/T//ccNATSwE.s:578    .text.add_mods:00000000 .Loc.130
/var/folders/f1/r0m_vh_54tg0jls9tjh4vqkr0000gn/T//ccNATSwE.s:579    .text.add_mods:00000000 L0
/var/folders/f1/r0m_vh_54tg0jls9tjh4vqkr0000gn/T//ccNATSwE.s:584    .text.add_mods:00000000 .Loc.131
/var/folders/f1/r0m_vh_54tg0jls9tjh4vqkr0000gn/T//ccNATSwE.s:585    .text.add_mods:00000000 .Loc.132
/var/folders/f1/r0m_vh_54tg0jls9tjh4vqkr0000gn/T//ccNATSwE.s:589    .text.add_mods:00000006 .Loc.133
/var/folders/f1/r0m_vh_54tg0jls9tjh4vqkr0000gn/T//ccNATSwE.s:592    .text.add_mods:0000000a .Loc.134
/var/folders/f1/r0m_vh_54tg0jls9tjh4vqkr0000gn/T//ccNATSwE.s:594    .text.add_mods:0000000c L0
/var/folders/f1/r0m_vh_54tg0jls9tjh4vqkr0000gn/T//ccNATSwE.s:600    .text.del_mods:00000000 del_mods
/var/folders/f1/r0m_vh_54tg0jls9tjh4vqkr0000gn/T//ccNATSwE.s:603    .text.del_mods:00000000 .Loc.135
/var/folders/f1/r0m_vh_54tg0jls9tjh4vqkr0000gn/T//ccNATSwE.s:604    .text.del_mods:00000000 L0
/var/folders/f1/r0m_vh_54tg0jls9tjh4vqkr0000gn/T//ccNATSwE.s:609    .text.del_mods:00000000 .Loc.136
/var/folders/f1/r0m_vh_54tg0jls9tjh4vqkr0000gn/T//ccNATSwE.s:610    .text.del_mods:00000000 .Loc.137
/var/folders/f1/r0m_vh_54tg0jls9tjh4vqkr0000gn/T//ccNATSwE.s:613    .text.del_mods:00000002 .Loc.138
/var/folders/f1/r0m_vh_54tg0jls9tjh4vqkr0000gn/T//ccNATSwE.s:618    .text.del_mods:0000000c .Loc.139
/var/folders/f1/r0m_vh_54tg0jls9tjh4vqkr0000gn/T//ccNATSwE.s:620    .text.del_mods:0000000e L0
/var/folders/f1/r0m_vh_54tg0jls9tjh4vqkr0000gn/T//ccNATSwE.s:626    .text.set_mods:00000000 set_mods
/var/folders/f1/r0m_vh_54tg0jls9tjh4vqkr0000gn/T//ccNATSwE.s:629    .text.set_mods:00000000 .Loc.140
/var/folders/f1/r0m_vh_54tg0jls9tjh4vqkr0000gn/T//ccNATSwE.s:630    .text.set_mods:00000000 L0
/var/folders/f1/r0m_vh_54tg0jls9tjh4vqkr0000gn/T//ccNATSwE.s:635    .text.set_mods:00000000 .Loc.141
/var/folders/f1/r0m_vh_54tg0jls9tjh4vqkr0000gn/T//ccNATSwE.s:636    .text.set_mods:00000000 .Loc.142
/var/folders/f1/r0m_vh_54tg0jls9tjh4vqkr0000gn/T//ccNATSwE.s:639    .text.set_mods:00000004 .Loc.143
/var/folders/f1/r0m_vh_54tg0jls9tjh4vqkr0000gn/T//ccNATSwE.s:641    .text.set_mods:00000006 L0
/var/folders/f1/r0m_vh_54tg0jls9tjh4vqkr0000gn/T//ccNATSwE.s:647    .text.clear_mods:00000000 clear_mods
/var/folders/f1/r0m_vh_54tg0jls9tjh4vqkr0000gn/T//ccNATSwE.s:649    .text.clear_mods:00000000 .Loc.144
/var/folders/f1/r0m_vh_54tg0jls9tjh4vqkr0000gn/T//ccNATSwE.s:650    .text.clear_mods:00000000 L0
/var/folders/f1/r0m_vh_54tg0jls9tjh4vqkr0000gn/T//ccNATSwE.s:655    .text.clear_mods:00000000 .Loc.145
/var/folders/f1/r0m_vh_54tg0jls9tjh4vqkr0000gn/T//ccNATSwE.s:656    .text.clear_mods:00000000 .Loc.146
/var/folders/f1/r0m_vh_54tg0jls9tjh4vqkr0000gn/T//ccNATSwE.s:659    .text.clear_mods:00000004 .Loc.147
/var/folders/f1/r0m_vh_54tg0jls9tjh4vqkr0000gn/T//ccNATSwE.s:661    .text.clear_mods:00000006 L0
/var/folders/f1/r0m_vh_54tg0jls9tjh4vqkr0000gn/T//ccNATSwE.s:667    .text.get_weak_mods:00000000 get_weak_mods
/var/folders/f1/r0m_vh_54tg0jls9tjh4vqkr0000gn/T//ccNATSwE.s:669    .text.get_weak_mods:00000000 .Loc.148
/var/folders/f1/r0m_vh_54tg0jls9tjh4vqkr0000gn/T//ccNATSwE.s:670    .text.get_weak_mods:00000000 L0
/var/folders/f1/r0m_vh_54tg0jls9tjh4vqkr0000gn/T//ccNATSwE.s:675    .text.get_weak_mods:00000000 .Loc.149
/var/folders/f1/r0m_vh_54tg0jls9tjh4vqkr0000gn/T//ccNATSwE.s:676    .text.get_weak_mods:00000000 .Loc.150
/var/folders/f1/r0m_vh_54tg0jls9tjh4vqkr0000gn/T//ccNATSwE.s:1218   .bss.weak_mods:00000000 weak_mods
/var/folders/f1/r0m_vh_54tg0jls9tjh4vqkr0000gn/T//ccNATSwE.s:680    .text.get_weak_mods:00000006 L0
/var/folders/f1/r0m_vh_54tg0jls9tjh4vqkr0000gn/T//ccNATSwE.s:686    .text.add_weak_mods:00000000 add_weak_mods
/var/folders/f1/r0m_vh_54tg0jls9tjh4vqkr0000gn/T//ccNATSwE.s:689    .text.add_weak_mods:00000000 .Loc.151
/var/folders/f1/r0m_vh_54tg0jls9tjh4vqkr0000gn/T//ccNATSwE.s:690    .text.add_weak_mods:00000000 L0
/var/folders/f1/r0m_vh_54tg0jls9tjh4vqkr0000gn/T//ccNATSwE.s:695    .text.add_weak_mods:00000000 .Loc.152
/var/folders/f1/r0m_vh_54tg0jls9tjh4vqkr0000gn/T//ccNATSwE.s:696    .text.add_weak_mods:00000000 .Loc.153
/var/folders/f1/r0m_vh_54tg0jls9tjh4vqkr0000gn/T//ccNATSwE.s:700    .text.add_weak_mods:00000006 .Loc.154
/var/folders/f1/r0m_vh_54tg0jls9tjh4vqkr0000gn/T//ccNATSwE.s:703    .text.add_weak_mods:0000000a .Loc.155
/var/folders/f1/r0m_vh_54tg0jls9tjh4vqkr0000gn/T//ccNATSwE.s:705    .text.add_weak_mods:0000000c L0
/var/folders/f1/r0m_vh_54tg0jls9tjh4vqkr0000gn/T//ccNATSwE.s:711    .text.del_weak_mods:00000000 del_weak_mods
/var/folders/f1/r0m_vh_54tg0jls9tjh4vqkr0000gn/T//ccNATSwE.s:714    .text.del_weak_mods:00000000 .Loc.156
/var/folders/f1/r0m_vh_54tg0jls9tjh4vqkr0000gn/T//ccNATSwE.s:715    .text.del_weak_mods:00000000 L0
/var/folders/f1/r0m_vh_54tg0jls9tjh4vqkr0000gn/T//ccNATSwE.s:720    .text.del_weak_mods:00000000 .Loc.157
/var/folders/f1/r0m_vh_54tg0jls9tjh4vqkr0000gn/T//ccNATSwE.s:721    .text.del_weak_mods:00000000 .Loc.158
/var/folders/f1/r0m_vh_54tg0jls9tjh4vqkr0000gn/T//ccNATSwE.s:724    .text.del_weak_mods:00000002 .Loc.159
/var/folders/f1/r0m_vh_54tg0jls9tjh4vqkr0000gn/T//ccNATSwE.s:729    .text.del_weak_mods:0000000c .Loc.160
/var/folders/f1/r0m_vh_54tg0jls9tjh4vqkr0000gn/T//ccNATSwE.s:731    .text.del_weak_mods:0000000e L0
/var/folders/f1/r0m_vh_54tg0jls9tjh4vqkr0000gn/T//ccNATSwE.s:737    .text.set_weak_mods:00000000 set_weak_mods
/var/folders/f1/r0m_vh_54tg0jls9tjh4vqkr0000gn/T//ccNATSwE.s:740    .text.set_weak_mods:00000000 .Loc.161
/var/folders/f1/r0m_vh_54tg0jls9tjh4vqkr0000gn/T//ccNATSwE.s:741    .text.set_weak_mods:00000000 L0
/var/folders/f1/r0m_vh_54tg0jls9tjh4vqkr0000gn/T//ccNATSwE.s:746    .text.set_weak_mods:00000000 .Loc.162
/var/folders/f1/r0m_vh_54tg0jls9tjh4vqkr0000gn/T//ccNATSwE.s:747    .text.set_weak_mods:00000000 .Loc.163
/var/folders/f1/r0m_vh_54tg0jls9tjh4vqkr0000gn/T//ccNATSwE.s:750    .text.set_weak_mods:00000004 .Loc.164
/var/folders/f1/r0m_vh_54tg0jls9tjh4vqkr0000gn/T//ccNATSwE.s:752    .text.set_weak_mods:00000006 L0
/var/folders/f1/r0m_vh_54tg0jls9tjh4vqkr0000gn/T//ccNATSwE.s:758    .text.clear_weak_mods:00000000 clear_weak_mods
/var/folders/f1/r0m_vh_54tg0jls9tjh4vqkr0000gn/T//ccNATSwE.s:760    .text.clear_weak_mods:00000000 .Loc.165
/var/folders/f1/r0m_vh_54tg0jls9tjh4vqkr0000gn/T//ccNATSwE.s:761    .text.clear_weak_mods:00000000 L0
/var/folders/f1/r0m_vh_54tg0jls9tjh4vqkr0000gn/T//ccNATSwE.s:766    .text.clear_weak_mods:00000000 .Loc.166
/var/folders/f1/r0m_vh_54tg0jls9tjh4vqkr0000gn/T//ccNATSwE.s:767    .text.clear_weak_mods:00000000 .Loc.167
/var/folders/f1/r0m_vh_54tg0jls9tjh4vqkr0000gn/T//ccNATSwE.s:770    .text.clear_weak_mods:00000004 .Loc.168
/var/folders/f1/r0m_vh_54tg0jls9tjh4vqkr0000gn/T//ccNATSwE.s:772    .text.clear_weak_mods:00000006 L0
/var/folders/f1/r0m_vh_54tg0jls9tjh4vqkr0000gn/T//ccNATSwE.s:778    .text.get_macro_mods:00000000 get_macro_mods
/var/folders/f1/r0m_vh_54tg0jls9tjh4vqkr0000gn/T//ccNATSwE.s:780    .text.get_macro_mods:00000000 .Loc.169
/var/folders/f1/r0m_vh_54tg0jls9tjh4vqkr0000gn/T//ccNATSwE.s:781    .text.get_macro_mods:00000000 L0
/var/folders/f1/r0m_vh_54tg0jls9tjh4vqkr0000gn/T//ccNATSwE.s:786    .text.get_macro_mods:00000000 .Loc.170
/var/folders/f1/r0m_vh_54tg0jls9tjh4vqkr0000gn/T//ccNATSwE.s:787    .text.get_macro_mods:00000000 .Loc.171
/var/folders/f1/r0m_vh_54tg0jls9tjh4vqkr0000gn/T//ccNATSwE.s:1213   .bss.macro_mods:00000000 macro_mods
/var/folders/f1/r0m_vh_54tg0jls9tjh4vqkr0000gn/T//ccNATSwE.s:791    .text.get_macro_mods:00000006 L0
/var/folders/f1/r0m_vh_54tg0jls9tjh4vqkr0000gn/T//ccNATSwE.s:797    .text.add_macro_mods:00000000 add_macro_mods
/var/folders/f1/r0m_vh_54tg0jls9tjh4vqkr0000gn/T//ccNATSwE.s:800    .text.add_macro_mods:00000000 .Loc.172
/var/folders/f1/r0m_vh_54tg0jls9tjh4vqkr0000gn/T//ccNATSwE.s:801    .text.add_macro_mods:00000000 L0
/var/folders/f1/r0m_vh_54tg0jls9tjh4vqkr0000gn/T//ccNATSwE.s:806    .text.add_macro_mods:00000000 .Loc.173
/var/folders/f1/r0m_vh_54tg0jls9tjh4vqkr0000gn/T//ccNATSwE.s:807    .text.add_macro_mods:00000000 .Loc.174
/var/folders/f1/r0m_vh_54tg0jls9tjh4vqkr0000gn/T//ccNATSwE.s:811    .text.add_macro_mods:00000006 .Loc.175
/var/folders/f1/r0m_vh_54tg0jls9tjh4vqkr0000gn/T//ccNATSwE.s:814    .text.add_macro_mods:0000000a .Loc.176
/var/folders/f1/r0m_vh_54tg0jls9tjh4vqkr0000gn/T//ccNATSwE.s:816    .text.add_macro_mods:0000000c L0
/var/folders/f1/r0m_vh_54tg0jls9tjh4vqkr0000gn/T//ccNATSwE.s:822    .text.del_macro_mods:00000000 del_macro_mods
/var/folders/f1/r0m_vh_54tg0jls9tjh4vqkr0000gn/T//ccNATSwE.s:825    .text.del_macro_mods:00000000 .Loc.177
/var/folders/f1/r0m_vh_54tg0jls9tjh4vqkr0000gn/T//ccNATSwE.s:826    .text.del_macro_mods:00000000 L0
/var/folders/f1/r0m_vh_54tg0jls9tjh4vqkr0000gn/T//ccNATSwE.s:831    .text.del_macro_mods:00000000 .Loc.178
/var/folders/f1/r0m_vh_54tg0jls9tjh4vqkr0000gn/T//ccNATSwE.s:832    .text.del_macro_mods:00000000 .Loc.179
/var/folders/f1/r0m_vh_54tg0jls9tjh4vqkr0000gn/T//ccNATSwE.s:835    .text.del_macro_mods:00000002 .Loc.180
/var/folders/f1/r0m_vh_54tg0jls9tjh4vqkr0000gn/T//ccNATSwE.s:840    .text.del_macro_mods:0000000c .Loc.181
/var/folders/f1/r0m_vh_54tg0jls9tjh4vqkr0000gn/T//ccNATSwE.s:842    .text.del_macro_mods:0000000e L0
/var/folders/f1/r0m_vh_54tg0jls9tjh4vqkr0000gn/T//ccNATSwE.s:848    .text.set_macro_mods:00000000 set_macro_mods
/var/folders/f1/r0m_vh_54tg0jls9tjh4vqkr0000gn/T//ccNATSwE.s:851    .text.set_macro_mods:00000000 .Loc.182
/var/folders/f1/r0m_vh_54tg0jls9tjh4vqkr0000gn/T//ccNATSwE.s:852    .text.set_macro_mods:00000000 L0
/var/folders/f1/r0m_vh_54tg0jls9tjh4vqkr0000gn/T//ccNATSwE.s:857    .text.set_macro_mods:00000000 .Loc.183
/var/folders/f1/r0m_vh_54tg0jls9tjh4vqkr0000gn/T//ccNATSwE.s:858    .text.set_macro_mods:00000000 .Loc.184
/var/folders/f1/r0m_vh_54tg0jls9tjh4vqkr0000gn/T//ccNATSwE.s:861    .text.set_macro_mods:00000004 .Loc.185
/var/folders/f1/r0m_vh_54tg0jls9tjh4vqkr0000gn/T//ccNATSwE.s:863    .text.set_macro_mods:00000006 L0
/var/folders/f1/r0m_vh_54tg0jls9tjh4vqkr0000gn/T//ccNATSwE.s:869    .text.clear_macro_mods:00000000 clear_macro_mods
/var/folders/f1/r0m_vh_54tg0jls9tjh4vqkr0000gn/T//ccNATSwE.s:871    .text.clear_macro_mods:00000000 .Loc.186
/var/folders/f1/r0m_vh_54tg0jls9tjh4vqkr0000gn/T//ccNATSwE.s:872    .text.clear_macro_mods:00000000 L0
/var/folders/f1/r0m_vh_54tg0jls9tjh4vqkr0000gn/T//ccNATSwE.s:877    .text.clear_macro_mods:00000000 .Loc.187
/var/folders/f1/r0m_vh_54tg0jls9tjh4vqkr0000gn/T//ccNATSwE.s:878    .text.clear_macro_mods:00000000 .Loc.188
/var/folders/f1/r0m_vh_54tg0jls9tjh4vqkr0000gn/T//ccNATSwE.s:881    .text.clear_macro_mods:00000004 .Loc.189
/var/folders/f1/r0m_vh_54tg0jls9tjh4vqkr0000gn/T//ccNATSwE.s:883    .text.clear_macro_mods:00000006 L0
/var/folders/f1/r0m_vh_54tg0jls9tjh4vqkr0000gn/T//ccNATSwE.s:889    .text.set_oneshot_mods:00000000 set_oneshot_mods
/var/folders/f1/r0m_vh_54tg0jls9tjh4vqkr0000gn/T//ccNATSwE.s:892    .text.set_oneshot_mods:00000000 .Loc.190
/var/folders/f1/r0m_vh_54tg0jls9tjh4vqkr0000gn/T//ccNATSwE.s:893    .text.set_oneshot_mods:00000000 L0
/var/folders/f1/r0m_vh_54tg0jls9tjh4vqkr0000gn/T//ccNATSwE.s:898    .text.set_oneshot_mods:00000000 .Loc.191
/var/folders/f1/r0m_vh_54tg0jls9tjh4vqkr0000gn/T//ccNATSwE.s:899    .text.set_oneshot_mods:00000000 .Loc.192
/var/folders/f1/r0m_vh_54tg0jls9tjh4vqkr0000gn/T//ccNATSwE.s:1197   .bss.oneshot_mods:00000000 oneshot_mods
/var/folders/f1/r0m_vh_54tg0jls9tjh4vqkr0000gn/T//ccNATSwE.s:902    .text.set_oneshot_mods:00000004 .Loc.193
/var/folders/f1/r0m_vh_54tg0jls9tjh4vqkr0000gn/T//ccNATSwE.s:904    .text.set_oneshot_mods:00000006 L0
/var/folders/f1/r0m_vh_54tg0jls9tjh4vqkr0000gn/T//ccNATSwE.s:910    .text.clear_oneshot_mods:00000000 clear_oneshot_mods
/var/folders/f1/r0m_vh_54tg0jls9tjh4vqkr0000gn/T//ccNATSwE.s:912    .text.clear_oneshot_mods:00000000 .Loc.194
/var/folders/f1/r0m_vh_54tg0jls9tjh4vqkr0000gn/T//ccNATSwE.s:913    .text.clear_oneshot_mods:00000000 L0
/var/folders/f1/r0m_vh_54tg0jls9tjh4vqkr0000gn/T//ccNATSwE.s:918    .text.clear_oneshot_mods:00000000 .Loc.195
/var/folders/f1/r0m_vh_54tg0jls9tjh4vqkr0000gn/T//ccNATSwE.s:919    .text.clear_oneshot_mods:00000000 .Loc.196
/var/folders/f1/r0m_vh_54tg0jls9tjh4vqkr0000gn/T//ccNATSwE.s:922    .text.clear_oneshot_mods:00000004 .Loc.197
/var/folders/f1/r0m_vh_54tg0jls9tjh4vqkr0000gn/T//ccNATSwE.s:924    .text.clear_oneshot_mods:00000006 L0
/var/folders/f1/r0m_vh_54tg0jls9tjh4vqkr0000gn/T//ccNATSwE.s:930    .text.get_oneshot_mods:00000000 get_oneshot_mods
/var/folders/f1/r0m_vh_54tg0jls9tjh4vqkr0000gn/T//ccNATSwE.s:932    .text.get_oneshot_mods:00000000 .Loc.198
/var/folders/f1/r0m_vh_54tg0jls9tjh4vqkr0000gn/T//ccNATSwE.s:933    .text.get_oneshot_mods:00000000 L0
/var/folders/f1/r0m_vh_54tg0jls9tjh4vqkr0000gn/T//ccNATSwE.s:938    .text.get_oneshot_mods:00000000 .Loc.199
/var/folders/f1/r0m_vh_54tg0jls9tjh4vqkr0000gn/T//ccNATSwE.s:939    .text.get_oneshot_mods:00000000 .Loc.200
/var/folders/f1/r0m_vh_54tg0jls9tjh4vqkr0000gn/T//ccNATSwE.s:943    .text.get_oneshot_mods:00000006 L0
/var/folders/f1/r0m_vh_54tg0jls9tjh4vqkr0000gn/T//ccNATSwE.s:949    .text.has_anykey:00000000 has_anykey
/var/folders/f1/r0m_vh_54tg0jls9tjh4vqkr0000gn/T//ccNATSwE.s:951    .text.has_anykey:00000000 .Loc.201
/var/folders/f1/r0m_vh_54tg0jls9tjh4vqkr0000gn/T//ccNATSwE.s:952    .text.has_anykey:00000000 L0
/var/folders/f1/r0m_vh_54tg0jls9tjh4vqkr0000gn/T//ccNATSwE.s:957    .text.has_anykey:00000000 .Loc.202
/var/folders/f1/r0m_vh_54tg0jls9tjh4vqkr0000gn/T//ccNATSwE.s:959    .text.has_anykey:00000000 .Loc.203
/var/folders/f1/r0m_vh_54tg0jls9tjh4vqkr0000gn/T//ccNATSwE.s:961    .text.has_anykey:00000000 .Loc.204
/var/folders/f1/r0m_vh_54tg0jls9tjh4vqkr0000gn/T//ccNATSwE.s:962    .text.has_anykey:00000000 .Loc.205
/var/folders/f1/r0m_vh_54tg0jls9tjh4vqkr0000gn/T//ccNATSwE.s:963    .text.has_anykey:00000000 .Loc.206
/var/folders/f1/r0m_vh_54tg0jls9tjh4vqkr0000gn/T//ccNATSwE.s:971    .text.has_anykey:00000010 .Loc.207
/var/folders/f1/r0m_vh_54tg0jls9tjh4vqkr0000gn/T//ccNATSwE.s:976    .text.has_anykey:00000012 .Loc.208
/var/folders/f1/r0m_vh_54tg0jls9tjh4vqkr0000gn/T//ccNATSwE.s:977    .text.has_anykey:00000012 .Loc.209
/var/folders/f1/r0m_vh_54tg0jls9tjh4vqkr0000gn/T//ccNATSwE.s:980    .text.has_anykey:00000014 .Loc.210
/var/folders/f1/r0m_vh_54tg0jls9tjh4vqkr0000gn/T//ccNATSwE.s:982    .text.has_anykey:00000016 .Loc.211
/var/folders/f1/r0m_vh_54tg0jls9tjh4vqkr0000gn/T//ccNATSwE.s:983    .text.has_anykey:00000016 .Loc.212
/var/folders/f1/r0m_vh_54tg0jls9tjh4vqkr0000gn/T//ccNATSwE.s:987    .text.has_anykey:00000018 .Loc.213
/var/folders/f1/r0m_vh_54tg0jls9tjh4vqkr0000gn/T//ccNATSwE.s:988    .text.has_anykey:00000018 .Loc.214
/var/folders/f1/r0m_vh_54tg0jls9tjh4vqkr0000gn/T//ccNATSwE.s:989    .text.has_anykey:00000018 .Loc.215
/var/folders/f1/r0m_vh_54tg0jls9tjh4vqkr0000gn/T//ccNATSwE.s:994    .text.has_anykey:0000001e .Loc.216
/var/folders/f1/r0m_vh_54tg0jls9tjh4vqkr0000gn/T//ccNATSwE.s:996    .text.has_anykey:0000001e .Loc.217
/var/folders/f1/r0m_vh_54tg0jls9tjh4vqkr0000gn/T//ccNATSwE.s:998    .text.has_anykey:00000020 L0
/var/folders/f1/r0m_vh_54tg0jls9tjh4vqkr0000gn/T//ccNATSwE.s:1004   .text.send_keyboard_report:00000000 send_keyboard_report
/var/folders/f1/r0m_vh_54tg0jls9tjh4vqkr0000gn/T//ccNATSwE.s:1006   .text.send_keyboard_report:00000000 .Loc.218
/var/folders/f1/r0m_vh_54tg0jls9tjh4vqkr0000gn/T//ccNATSwE.s:1007   .text.send_keyboard_report:00000000 L0
/var/folders/f1/r0m_vh_54tg0jls9tjh4vqkr0000gn/T//ccNATSwE.s:1012   .text.send_keyboard_report:00000000 .Loc.219
/var/folders/f1/r0m_vh_54tg0jls9tjh4vqkr0000gn/T//ccNATSwE.s:1013   .text.send_keyboard_report:00000000 .Loc.220
/var/folders/f1/r0m_vh_54tg0jls9tjh4vqkr0000gn/T//ccNATSwE.s:1016   .text.send_keyboard_report:00000008 .Loc.221
/var/folders/f1/r0m_vh_54tg0jls9tjh4vqkr0000gn/T//ccNATSwE.s:1019   .text.send_keyboard_report:0000000e .Loc.222
/var/folders/f1/r0m_vh_54tg0jls9tjh4vqkr0000gn/T//ccNATSwE.s:1020   .text.send_keyboard_report:0000000e .Loc.223
/var/folders/f1/r0m_vh_54tg0jls9tjh4vqkr0000gn/T//ccNATSwE.s:1027   .text.send_keyboard_report:00000020 .Loc.224
/var/folders/f1/r0m_vh_54tg0jls9tjh4vqkr0000gn/T//ccNATSwE.s:1028   .text.send_keyboard_report:00000020 .Loc.225
/var/folders/f1/r0m_vh_54tg0jls9tjh4vqkr0000gn/T//ccNATSwE.s:1035   .text.send_keyboard_report:00000032 .Loc.226
/var/folders/f1/r0m_vh_54tg0jls9tjh4vqkr0000gn/T//ccNATSwE.s:1036   .text.send_keyboard_report:00000032 .Loc.227
/var/folders/f1/r0m_vh_54tg0jls9tjh4vqkr0000gn/T//ccNATSwE.s:1038   .text.send_keyboard_report:00000036 .Loc.228
/var/folders/f1/r0m_vh_54tg0jls9tjh4vqkr0000gn/T//ccNATSwE.s:1041   .text.send_keyboard_report:0000003a .Loc.229
/var/folders/f1/r0m_vh_54tg0jls9tjh4vqkr0000gn/T//ccNATSwE.s:1042   .text.send_keyboard_report:0000003a .Loc.230
/var/folders/f1/r0m_vh_54tg0jls9tjh4vqkr0000gn/T//ccNATSwE.s:1048   .text.send_keyboard_report:00000048 .Loc.231
/var/folders/f1/r0m_vh_54tg0jls9tjh4vqkr0000gn/T//ccNATSwE.s:1049   .text.send_keyboard_report:00000048 .Loc.232
/var/folders/f1/r0m_vh_54tg0jls9tjh4vqkr0000gn/T//ccNATSwE.s:1052   .text.send_keyboard_report:0000004c .Loc.233
/var/folders/f1/r0m_vh_54tg0jls9tjh4vqkr0000gn/T//ccNATSwE.s:1054   .text.send_keyboard_report:0000004e .Loc.234
/var/folders/f1/r0m_vh_54tg0jls9tjh4vqkr0000gn/T//ccNATSwE.s:1057   .text.send_keyboard_report:0000004e .Loc.235
/var/folders/f1/r0m_vh_54tg0jls9tjh4vqkr0000gn/T//ccNATSwE.s:1059   .text.send_keyboard_report:0000004e .Loc.236
/var/folders/f1/r0m_vh_54tg0jls9tjh4vqkr0000gn/T//ccNATSwE.s:1060   .text.send_keyboard_report:0000004e .Loc.237
/var/folders/f1/r0m_vh_54tg0jls9tjh4vqkr0000gn/T//ccNATSwE.s:1065   .text.send_keyboard_report:00000052 .Loc.238
/var/folders/f1/r0m_vh_54tg0jls9tjh4vqkr0000gn/T//ccNATSwE.s:1070   .text.send_keyboard_report:0000005e L0
/var/folders/f1/r0m_vh_54tg0jls9tjh4vqkr0000gn/T//ccNATSwE.s:1076   .text.has_anymod:00000000 has_anymod
/var/folders/f1/r0m_vh_54tg0jls9tjh4vqkr0000gn/T//ccNATSwE.s:1078   .text.has_anymod:00000000 .Loc.239
/var/folders/f1/r0m_vh_54tg0jls9tjh4vqkr0000gn/T//ccNATSwE.s:1079   .text.has_anymod:00000000 L0
/var/folders/f1/r0m_vh_54tg0jls9tjh4vqkr0000gn/T//ccNATSwE.s:1084   .text.has_anymod:00000000 .Loc.240
/var/folders/f1/r0m_vh_54tg0jls9tjh4vqkr0000gn/T//ccNATSwE.s:1085   .text.has_anymod:00000000 .Loc.241
/var/folders/f1/r0m_vh_54tg0jls9tjh4vqkr0000gn/T//ccNATSwE.s:1089   .text.has_anymod:00000008 L0
/var/folders/f1/r0m_vh_54tg0jls9tjh4vqkr0000gn/T//ccNATSwE.s:1095   .text.get_first_key:00000000 get_first_key
/var/folders/f1/r0m_vh_54tg0jls9tjh4vqkr0000gn/T//ccNATSwE.s:1097   .text.get_first_key:00000000 .Loc.242
/var/folders/f1/r0m_vh_54tg0jls9tjh4vqkr0000gn/T//ccNATSwE.s:1098   .text.get_first_key:00000000 L0
/var/folders/f1/r0m_vh_54tg0jls9tjh4vqkr0000gn/T//ccNATSwE.s:1111   .text.get_first_key:00000004 .Loc.243
/var/folders/f1/r0m_vh_54tg0jls9tjh4vqkr0000gn/T//ccNATSwE.s:1114   .text.get_first_key:0000000c .Loc.244
/var/folders/f1/r0m_vh_54tg0jls9tjh4vqkr0000gn/T//ccNATSwE.s:1118   .text.get_first_key:00000014 .Loc.245
/var/folders/f1/r0m_vh_54tg0jls9tjh4vqkr0000gn/T//ccNATSwE.s:1123   .text.get_first_key:0000001c .Loc.246
/var/folders/f1/r0m_vh_54tg0jls9tjh4vqkr0000gn/T//ccNATSwE.s:1126   .text.get_first_key:0000001e .Loc.247
/var/folders/f1/r0m_vh_54tg0jls9tjh4vqkr0000gn/T//ccNATSwE.s:1130   .text.get_first_key:00000022 .Loc.248
/var/folders/f1/r0m_vh_54tg0jls9tjh4vqkr0000gn/T//ccNATSwE.s:1131   .text.get_first_key:00000022 .Loc.249
/var/folders/f1/r0m_vh_54tg0jls9tjh4vqkr0000gn/T//ccNATSwE.s:1137   .text.get_first_key:00000026 .Loc.250
/var/folders/f1/r0m_vh_54tg0jls9tjh4vqkr0000gn/T//ccNATSwE.s:1138   .text.get_first_key:00000026 .Loc.251
/var/folders/f1/r0m_vh_54tg0jls9tjh4vqkr0000gn/T//ccNATSwE.s:1139   .text.get_first_key:00000026 .Loc.252
/var/folders/f1/r0m_vh_54tg0jls9tjh4vqkr0000gn/T//ccNATSwE.s:1142   .text.get_first_key:00000028 .Loc.253
/var/folders/f1/r0m_vh_54tg0jls9tjh4vqkr0000gn/T//ccNATSwE.s:1143   .text.get_first_key:00000028 .Loc.254
/var/folders/f1/r0m_vh_54tg0jls9tjh4vqkr0000gn/T//ccNATSwE.s:1148   .text.get_first_key:0000002c .Loc.255
/var/folders/f1/r0m_vh_54tg0jls9tjh4vqkr0000gn/T//ccNATSwE.s:1150   .text.get_first_key:0000002e .Loc.256
/var/folders/f1/r0m_vh_54tg0jls9tjh4vqkr0000gn/T//ccNATSwE.s:1154   .text.get_first_key:00000032 .Loc.257
/var/folders/f1/r0m_vh_54tg0jls9tjh4vqkr0000gn/T//ccNATSwE.s:1155   .text.get_first_key:00000032 .Loc.258
/var/folders/f1/r0m_vh_54tg0jls9tjh4vqkr0000gn/T//ccNATSwE.s:1157   .text.get_first_key:00000034 .Loc.259
/var/folders/f1/r0m_vh_54tg0jls9tjh4vqkr0000gn/T//ccNATSwE.s:1163   .text.get_first_key:0000003e .Loc.260
/var/folders/f1/r0m_vh_54tg0jls9tjh4vqkr0000gn/T//ccNATSwE.s:1171   .text.get_first_key:00000048 .Loc.261
/var/folders/f1/r0m_vh_54tg0jls9tjh4vqkr0000gn/T//ccNATSwE.s:1175   .text.get_first_key:0000004a .Loc.262
/var/folders/f1/r0m_vh_54tg0jls9tjh4vqkr0000gn/T//ccNATSwE.s:1177   .text.get_first_key:0000004a .Loc.263
/var/folders/f1/r0m_vh_54tg0jls9tjh4vqkr0000gn/T//ccNATSwE.s:1181   .text.get_first_key:00000050 L0
/var/folders/f1/r0m_vh_54tg0jls9tjh4vqkr0000gn/T//ccNATSwE.s:1208   .bss.__compound_literal.0:00000000 __compound_literal.0
/var/folders/f1/r0m_vh_54tg0jls9tjh4vqkr0000gn/T//ccNATSwE.s:30     .text.get_oneshot_locked_mods:00000006 L0
/var/folders/f1/r0m_vh_54tg0jls9tjh4vqkr0000gn/T//ccNATSwE.s:51     .text.set_oneshot_locked_mods:00000006 L0
/var/folders/f1/r0m_vh_54tg0jls9tjh4vqkr0000gn/T//ccNATSwE.s:71     .text.clear_oneshot_locked_mods:00000006 L0
/var/folders/f1/r0m_vh_54tg0jls9tjh4vqkr0000gn/T//ccNATSwE.s:94     .text.get_oneshot_layer:0000000c L0
/var/folders/f1/r0m_vh_54tg0jls9tjh4vqkr0000gn/T//ccNATSwE.s:115    .text.get_oneshot_layer_state:00000008 L0
/var/folders/f1/r0m_vh_54tg0jls9tjh4vqkr0000gn/T//ccNATSwE.s:145    .text.set_oneshot_layer:00000012 L0
/var/folders/f1/r0m_vh_54tg0jls9tjh4vqkr0000gn/T//ccNATSwE.s:165    .text.reset_oneshot_layer:00000006 L0
/var/folders/f1/r0m_vh_54tg0jls9tjh4vqkr0000gn/T//ccNATSwE.s:233    .text.clear_oneshot_layer_state:0000002c L0
/var/folders/f1/r0m_vh_54tg0jls9tjh4vqkr0000gn/T//ccNATSwE.s:266    .text.is_oneshot_layer_active:0000000e L0
/var/folders/f1/r0m_vh_54tg0jls9tjh4vqkr0000gn/T//ccNATSwE.s:396    .text.add_key:0000007a L0
/var/folders/f1/r0m_vh_54tg0jls9tjh4vqkr0000gn/T//ccNATSwE.s:506    .text.del_key:00000068 L0
/var/folders/f1/r0m_vh_54tg0jls9tjh4vqkr0000gn/T//ccNATSwE.s:553    .text.clear_keys:0000001c L0
/var/folders/f1/r0m_vh_54tg0jls9tjh4vqkr0000gn/T//ccNATSwE.s:572    .text.get_mods:00000006 L0
/var/folders/f1/r0m_vh_54tg0jls9tjh4vqkr0000gn/T//ccNATSwE.s:597    .text.add_mods:0000000c L0
/var/folders/f1/r0m_vh_54tg0jls9tjh4vqkr0000gn/T//ccNATSwE.s:623    .text.del_mods:0000000e L0
/var/folders/f1/r0m_vh_54tg0jls9tjh4vqkr0000gn/T//ccNATSwE.s:644    .text.set_mods:00000006 L0
/var/folders/f1/r0m_vh_54tg0jls9tjh4vqkr0000gn/T//ccNATSwE.s:664    .text.clear_mods:00000006 L0
/var/folders/f1/r0m_vh_54tg0jls9tjh4vqkr0000gn/T//ccNATSwE.s:683    .text.get_weak_mods:00000006 L0
/var/folders/f1/r0m_vh_54tg0jls9tjh4vqkr0000gn/T//ccNATSwE.s:708    .text.add_weak_mods:0000000c L0
/var/folders/f1/r0m_vh_54tg0jls9tjh4vqkr0000gn/T//ccNATSwE.s:734    .text.del_weak_mods:0000000e L0
/var/folders/f1/r0m_vh_54tg0jls9tjh4vqkr0000gn/T//ccNATSwE.s:755    .text.set_weak_mods:00000006 L0
/var/folders/f1/r0m_vh_54tg0jls9tjh4vqkr0000gn/T//ccNATSwE.s:775    .text.clear_weak_mods:00000006 L0
/var/folders/f1/r0m_vh_54tg0jls9tjh4vqkr0000gn/T//ccNATSwE.s:794    .text.get_macro_mods:00000006 L0
/var/folders/f1/r0m_vh_54tg0jls9tjh4vqkr0000gn/T//ccNATSwE.s:819    .text.add_macro_mods:0000000c L0
/var/folders/f1/r0m_vh_54tg0jls9tjh4vqkr0000gn/T//ccNATSwE.s:845    .text.del_macro_mods:0000000e L0
/var/folders/f1/r0m_vh_54tg0jls9tjh4vqkr0000gn/T//ccNATSwE.s:866    .text.set_macro_mods:00000006 L0
/var/folders/f1/r0m_vh_54tg0jls9tjh4vqkr0000gn/T//ccNATSwE.s:886    .text.clear_macro_mods:00000006 L0
/var/folders/f1/r0m_vh_54tg0jls9tjh4vqkr0000gn/T//ccNATSwE.s:907    .text.set_oneshot_mods:00000006 L0
/var/folders/f1/r0m_vh_54tg0jls9tjh4vqkr0000gn/T//ccNATSwE.s:927    .text.clear_oneshot_mods:00000006 L0
/var/folders/f1/r0m_vh_54tg0jls9tjh4vqkr0000gn/T//ccNATSwE.s:946    .text.get_oneshot_mods:00000006 L0
/var/folders/f1/r0m_vh_54tg0jls9tjh4vqkr0000gn/T//ccNATSwE.s:1001   .text.has_anykey:00000020 L0
/var/folders/f1/r0m_vh_54tg0jls9tjh4vqkr0000gn/T//ccNATSwE.s:1073   .text.send_keyboard_report:0000005e L0
/var/folders/f1/r0m_vh_54tg0jls9tjh4vqkr0000gn/T//ccNATSwE.s:1092   .text.has_anymod:00000008 L0
/var/folders/f1/r0m_vh_54tg0jls9tjh4vqkr0000gn/T//ccNATSwE.s:1184   .text.get_first_key:00000050 L0
                     .debug_frame:00000000 L0
/var/folders/f1/r0m_vh_54tg0jls9tjh4vqkr0000gn/T//ccNATSwE.s:226    .text.clear_oneshot_layer_state:0000002a .L8
/var/folders/f1/r0m_vh_54tg0jls9tjh4vqkr0000gn/T//ccNATSwE.s:259    .text.is_oneshot_layer_active:0000000c .L11
/var/folders/f1/r0m_vh_54tg0jls9tjh4vqkr0000gn/T//ccNATSwE.s:327    .text.add_key:00000040 .L13
/var/folders/f1/r0m_vh_54tg0jls9tjh4vqkr0000gn/T//ccNATSwE.s:371    .text.add_key:0000006a .L12
/var/folders/f1/r0m_vh_54tg0jls9tjh4vqkr0000gn/T//ccNATSwE.s:318    .text.add_key:00000034 .L21
/var/folders/f1/r0m_vh_54tg0jls9tjh4vqkr0000gn/T//ccNATSwE.s:316    .text.add_key:00000032 .L11
/var/folders/f1/r0m_vh_54tg0jls9tjh4vqkr0000gn/T//ccNATSwE.s:357    .text.add_key:00000060 .L15
/var/folders/f1/r0m_vh_54tg0jls9tjh4vqkr0000gn/T//ccNATSwE.s:340    .text.add_key:00000050 .L16
/var/folders/f1/r0m_vh_54tg0jls9tjh4vqkr0000gn/T//ccNATSwE.s:379    .text.add_key:0000006c .L18
/var/folders/f1/r0m_vh_54tg0jls9tjh4vqkr0000gn/T//ccNATSwE.s:460    .text.del_key:00000044 .L28
/var/folders/f1/r0m_vh_54tg0jls9tjh4vqkr0000gn/T//ccNATSwE.s:496    .text.del_key:00000066 .L27
/var/folders/f1/r0m_vh_54tg0jls9tjh4vqkr0000gn/T//ccNATSwE.s:450    .text.del_key:00000036 .L22
/var/folders/f1/r0m_vh_54tg0jls9tjh4vqkr0000gn/T//ccNATSwE.s:448    .text.del_key:00000034 .L12
/var/folders/f1/r0m_vh_54tg0jls9tjh4vqkr0000gn/T//ccNATSwE.s:487    .text.del_key:00000060 .L31
/var/folders/f1/r0m_vh_54tg0jls9tjh4vqkr0000gn/T//ccNATSwE.s:473    .text.del_key:00000054 .L32
/var/folders/f1/r0m_vh_54tg0jls9tjh4vqkr0000gn/T//ccNATSwE.s:527    .text.clear_keys:00000004 .L39
/var/folders/f1/r0m_vh_54tg0jls9tjh4vqkr0000gn/T//ccNATSwE.s:974    .text.has_anykey:00000012 .L61
/var/folders/f1/r0m_vh_54tg0jls9tjh4vqkr0000gn/T//ccNATSwE.s:1062   .text.send_keyboard_report:00000052 .L68
/var/folders/f1/r0m_vh_54tg0jls9tjh4vqkr0000gn/T//ccNATSwE.s:1129   .text.get_first_key:00000022 .L75
/var/folders/f1/r0m_vh_54tg0jls9tjh4vqkr0000gn/T//ccNATSwE.s:1147   .text.get_first_key:0000002c .L76
/var/folders/f1/r0m_vh_54tg0jls9tjh4vqkr0000gn/T//ccNATSwE.s:1173   .text.get_first_key:0000004a .L74
/var/folders/f1/r0m_vh_54tg0jls9tjh4vqkr0000gn/T//ccNATSwE.s:1153   .text.get_first_key:00000032 .L77
/var/folders/f1/r0m_vh_54tg0jls9tjh4vqkr0000gn/T//ccNATSwE.s:1135   .text.get_first_key:00000026 .L78
/var/folders/f1/r0m_vh_54tg0jls9tjh4vqkr0000gn/T//ccNATSwE.s:1165   .text.get_first_key:00000040 .L13
/var/folders/f1/r0m_vh_54tg0jls9tjh4vqkr0000gn/T//ccNATSwE.s:3016   .debug_abbrev:00000000 .Ldebug_abbrev0
/var/folders/f1/r0m_vh_54tg0jls9tjh4vqkr0000gn/T//ccNATSwE.s:4514   .debug_ranges:00000000 .Ldebug_ranges0
/var/folders/f1/r0m_vh_54tg0jls9tjh4vqkr0000gn/T//ccNATSwE.s:4610   .debug_line:00000000 .Ldebug_line0
/var/folders/f1/r0m_vh_54tg0jls9tjh4vqkr0000gn/T//ccNATSwE.s:1096   .text.get_first_key:00000000 .LFB140
/var/folders/f1/r0m_vh_54tg0jls9tjh4vqkr0000gn/T//ccNATSwE.s:1182   .text.get_first_key:00000050 .LFE140
/var/folders/f1/r0m_vh_54tg0jls9tjh4vqkr0000gn/T//ccNATSwE.s:3951   .debug_loc:00000000 .LLST20
/var/folders/f1/r0m_vh_54tg0jls9tjh4vqkr0000gn/T//ccNATSwE.s:3975   .debug_loc:00000031 .LLST21
/var/folders/f1/r0m_vh_54tg0jls9tjh4vqkr0000gn/T//ccNATSwE.s:3972   .debug_loc:0000002f .LVUS21
/var/folders/f1/r0m_vh_54tg0jls9tjh4vqkr0000gn/T//ccNATSwE.s:1162   .text.get_first_key:0000003e .LVL56
/var/folders/f1/r0m_vh_54tg0jls9tjh4vqkr0000gn/T//ccNATSwE.s:1077   .text.has_anymod:00000000 .LFB139
/var/folders/f1/r0m_vh_54tg0jls9tjh4vqkr0000gn/T//ccNATSwE.s:1090   .text.has_anymod:00000008 .LFE139
/var/folders/f1/r0m_vh_54tg0jls9tjh4vqkr0000gn/T//ccNATSwE.s:1088   .text.has_anymod:00000008 .LVL52
/var/folders/f1/r0m_vh_54tg0jls9tjh4vqkr0000gn/T//ccNATSwE.s:950    .text.has_anykey:00000000 .LFB138
/var/folders/f1/r0m_vh_54tg0jls9tjh4vqkr0000gn/T//ccNATSwE.s:999    .text.has_anykey:00000020 .LFE138
/var/folders/f1/r0m_vh_54tg0jls9tjh4vqkr0000gn/T//ccNATSwE.s:3987   .debug_loc:00000048 .LLST18
/var/folders/f1/r0m_vh_54tg0jls9tjh4vqkr0000gn/T//ccNATSwE.s:3982   .debug_loc:00000044 .LVUS18
/var/folders/f1/r0m_vh_54tg0jls9tjh4vqkr0000gn/T//ccNATSwE.s:4008   .debug_loc:0000006f .LLST19
/var/folders/f1/r0m_vh_54tg0jls9tjh4vqkr0000gn/T//ccNATSwE.s:3999   .debug_loc:00000067 .LVUS19
/var/folders/f1/r0m_vh_54tg0jls9tjh4vqkr0000gn/T//ccNATSwE.s:931    .text.get_oneshot_mods:00000000 .LFB137
/var/folders/f1/r0m_vh_54tg0jls9tjh4vqkr0000gn/T//ccNATSwE.s:944    .text.get_oneshot_mods:00000006 .LFE137
/var/folders/f1/r0m_vh_54tg0jls9tjh4vqkr0000gn/T//ccNATSwE.s:891    .text.set_oneshot_mods:00000000 .LFB135
/var/folders/f1/r0m_vh_54tg0jls9tjh4vqkr0000gn/T//ccNATSwE.s:905    .text.set_oneshot_mods:00000006 .LFE135
/var/folders/f1/r0m_vh_54tg0jls9tjh4vqkr0000gn/T//ccNATSwE.s:870    .text.clear_macro_mods:00000000 .LFB134
/var/folders/f1/r0m_vh_54tg0jls9tjh4vqkr0000gn/T//ccNATSwE.s:884    .text.clear_macro_mods:00000006 .LFE134
/var/folders/f1/r0m_vh_54tg0jls9tjh4vqkr0000gn/T//ccNATSwE.s:850    .text.set_macro_mods:00000000 .LFB133
/var/folders/f1/r0m_vh_54tg0jls9tjh4vqkr0000gn/T//ccNATSwE.s:864    .text.set_macro_mods:00000006 .LFE133
/var/folders/f1/r0m_vh_54tg0jls9tjh4vqkr0000gn/T//ccNATSwE.s:824    .text.del_macro_mods:00000000 .LFB132
/var/folders/f1/r0m_vh_54tg0jls9tjh4vqkr0000gn/T//ccNATSwE.s:843    .text.del_macro_mods:0000000e .LFE132
/var/folders/f1/r0m_vh_54tg0jls9tjh4vqkr0000gn/T//ccNATSwE.s:4056   .debug_loc:000000c8 .LLST17
/var/folders/f1/r0m_vh_54tg0jls9tjh4vqkr0000gn/T//ccNATSwE.s:4051   .debug_loc:000000c4 .LVUS17
/var/folders/f1/r0m_vh_54tg0jls9tjh4vqkr0000gn/T//ccNATSwE.s:799    .text.add_macro_mods:00000000 .LFB131
/var/folders/f1/r0m_vh_54tg0jls9tjh4vqkr0000gn/T//ccNATSwE.s:817    .text.add_macro_mods:0000000c .LFE131
/var/folders/f1/r0m_vh_54tg0jls9tjh4vqkr0000gn/T//ccNATSwE.s:4075   .debug_loc:000000ed .LLST16
/var/folders/f1/r0m_vh_54tg0jls9tjh4vqkr0000gn/T//ccNATSwE.s:4070   .debug_loc:000000e9 .LVUS16
/var/folders/f1/r0m_vh_54tg0jls9tjh4vqkr0000gn/T//ccNATSwE.s:779    .text.get_macro_mods:00000000 .LFB130
/var/folders/f1/r0m_vh_54tg0jls9tjh4vqkr0000gn/T//ccNATSwE.s:792    .text.get_macro_mods:00000006 .LFE130
/var/folders/f1/r0m_vh_54tg0jls9tjh4vqkr0000gn/T//ccNATSwE.s:759    .text.clear_weak_mods:00000000 .LFB129
/var/folders/f1/r0m_vh_54tg0jls9tjh4vqkr0000gn/T//ccNATSwE.s:773    .text.clear_weak_mods:00000006 .LFE129
/var/folders/f1/r0m_vh_54tg0jls9tjh4vqkr0000gn/T//ccNATSwE.s:739    .text.set_weak_mods:00000000 .LFB128
/var/folders/f1/r0m_vh_54tg0jls9tjh4vqkr0000gn/T//ccNATSwE.s:753    .text.set_weak_mods:00000006 .LFE128
/var/folders/f1/r0m_vh_54tg0jls9tjh4vqkr0000gn/T//ccNATSwE.s:713    .text.del_weak_mods:00000000 .LFB127
/var/folders/f1/r0m_vh_54tg0jls9tjh4vqkr0000gn/T//ccNATSwE.s:732    .text.del_weak_mods:0000000e .LFE127
/var/folders/f1/r0m_vh_54tg0jls9tjh4vqkr0000gn/T//ccNATSwE.s:4094   .debug_loc:00000112 .LLST15
/var/folders/f1/r0m_vh_54tg0jls9tjh4vqkr0000gn/T//ccNATSwE.s:4089   .debug_loc:0000010e .LVUS15
/var/folders/f1/r0m_vh_54tg0jls9tjh4vqkr0000gn/T//ccNATSwE.s:688    .text.add_weak_mods:00000000 .LFB126
/var/folders/f1/r0m_vh_54tg0jls9tjh4vqkr0000gn/T//ccNATSwE.s:706    .text.add_weak_mods:0000000c .LFE126
/var/folders/f1/r0m_vh_54tg0jls9tjh4vqkr0000gn/T//ccNATSwE.s:4113   .debug_loc:00000137 .LLST14
/var/folders/f1/r0m_vh_54tg0jls9tjh4vqkr0000gn/T//ccNATSwE.s:4108   .debug_loc:00000133 .LVUS14
/var/folders/f1/r0m_vh_54tg0jls9tjh4vqkr0000gn/T//ccNATSwE.s:668    .text.get_weak_mods:00000000 .LFB125
/var/folders/f1/r0m_vh_54tg0jls9tjh4vqkr0000gn/T//ccNATSwE.s:681    .text.get_weak_mods:00000006 .LFE125
/var/folders/f1/r0m_vh_54tg0jls9tjh4vqkr0000gn/T//ccNATSwE.s:648    .text.clear_mods:00000000 .LFB124
/var/folders/f1/r0m_vh_54tg0jls9tjh4vqkr0000gn/T//ccNATSwE.s:662    .text.clear_mods:00000006 .LFE124
/var/folders/f1/r0m_vh_54tg0jls9tjh4vqkr0000gn/T//ccNATSwE.s:628    .text.set_mods:00000000 .LFB123
/var/folders/f1/r0m_vh_54tg0jls9tjh4vqkr0000gn/T//ccNATSwE.s:642    .text.set_mods:00000006 .LFE123
/var/folders/f1/r0m_vh_54tg0jls9tjh4vqkr0000gn/T//ccNATSwE.s:602    .text.del_mods:00000000 .LFB122
/var/folders/f1/r0m_vh_54tg0jls9tjh4vqkr0000gn/T//ccNATSwE.s:621    .text.del_mods:0000000e .LFE122
/var/folders/f1/r0m_vh_54tg0jls9tjh4vqkr0000gn/T//ccNATSwE.s:4132   .debug_loc:0000015c .LLST13
/var/folders/f1/r0m_vh_54tg0jls9tjh4vqkr0000gn/T//ccNATSwE.s:4127   .debug_loc:00000158 .LVUS13
/var/folders/f1/r0m_vh_54tg0jls9tjh4vqkr0000gn/T//ccNATSwE.s:577    .text.add_mods:00000000 .LFB121
/var/folders/f1/r0m_vh_54tg0jls9tjh4vqkr0000gn/T//ccNATSwE.s:595    .text.add_mods:0000000c .LFE121
/var/folders/f1/r0m_vh_54tg0jls9tjh4vqkr0000gn/T//ccNATSwE.s:4151   .debug_loc:00000181 .LLST12
/var/folders/f1/r0m_vh_54tg0jls9tjh4vqkr0000gn/T//ccNATSwE.s:4146   .debug_loc:0000017d .LVUS12
/var/folders/f1/r0m_vh_54tg0jls9tjh4vqkr0000gn/T//ccNATSwE.s:557    .text.get_mods:00000000 .LFB120
/var/folders/f1/r0m_vh_54tg0jls9tjh4vqkr0000gn/T//ccNATSwE.s:570    .text.get_mods:00000006 .LFE120
/var/folders/f1/r0m_vh_54tg0jls9tjh4vqkr0000gn/T//ccNATSwE.s:510    .text.clear_keys:00000000 .LFB119
/var/folders/f1/r0m_vh_54tg0jls9tjh4vqkr0000gn/T//ccNATSwE.s:551    .text.clear_keys:0000001c .LFE119
/var/folders/f1/r0m_vh_54tg0jls9tjh4vqkr0000gn/T//ccNATSwE.s:4174   .debug_loc:000001aa .LLST11
/var/folders/f1/r0m_vh_54tg0jls9tjh4vqkr0000gn/T//ccNATSwE.s:4165   .debug_loc:000001a2 .LVUS11
/var/folders/f1/r0m_vh_54tg0jls9tjh4vqkr0000gn/T//ccNATSwE.s:401    .text.del_key:00000000 .LFB118
/var/folders/f1/r0m_vh_54tg0jls9tjh4vqkr0000gn/T//ccNATSwE.s:504    .text.del_key:00000068 .LFE118
/var/folders/f1/r0m_vh_54tg0jls9tjh4vqkr0000gn/T//ccNATSwE.s:4203   .debug_loc:000001e7 .LLST8
/var/folders/f1/r0m_vh_54tg0jls9tjh4vqkr0000gn/T//ccNATSwE.s:4196   .debug_loc:000001e1 .LVUS8
/var/folders/f1/r0m_vh_54tg0jls9tjh4vqkr0000gn/T//ccNATSwE.s:420    .text.del_key:00000010 .LBI29
/var/folders/f1/r0m_vh_54tg0jls9tjh4vqkr0000gn/T//ccNATSwE.s:419    .text.del_key:00000010 .LBB29
/var/folders/f1/r0m_vh_54tg0jls9tjh4vqkr0000gn/T//ccNATSwE.s:463    .text.del_key:00000044 .LBE29
/var/folders/f1/r0m_vh_54tg0jls9tjh4vqkr0000gn/T//ccNATSwE.s:4226   .debug_loc:00000217 .LLST9
/var/folders/f1/r0m_vh_54tg0jls9tjh4vqkr0000gn/T//ccNATSwE.s:4221   .debug_loc:00000213 .LVUS9
/var/folders/f1/r0m_vh_54tg0jls9tjh4vqkr0000gn/T//ccNATSwE.s:464    .text.del_key:00000044 .LBB31
/var/folders/f1/r0m_vh_54tg0jls9tjh4vqkr0000gn/T//ccNATSwE.s:500    .text.del_key:00000066 .LBE31
/var/folders/f1/r0m_vh_54tg0jls9tjh4vqkr0000gn/T//ccNATSwE.s:465    .text.del_key:00000044 .LBB32
/var/folders/f1/r0m_vh_54tg0jls9tjh4vqkr0000gn/T//ccNATSwE.s:499    .text.del_key:00000066 .LBE32
/var/folders/f1/r0m_vh_54tg0jls9tjh4vqkr0000gn/T//ccNATSwE.s:4247   .debug_loc:0000023e .LLST10
/var/folders/f1/r0m_vh_54tg0jls9tjh4vqkr0000gn/T//ccNATSwE.s:4240   .debug_loc:00000238 .LVUS10
/var/folders/f1/r0m_vh_54tg0jls9tjh4vqkr0000gn/T//ccNATSwE.s:271    .text.add_key:00000000 .LFB117
/var/folders/f1/r0m_vh_54tg0jls9tjh4vqkr0000gn/T//ccNATSwE.s:394    .text.add_key:0000007a .LFE117
/var/folders/f1/r0m_vh_54tg0jls9tjh4vqkr0000gn/T//ccNATSwE.s:4290   .debug_loc:00000282 .LLST4
/var/folders/f1/r0m_vh_54tg0jls9tjh4vqkr0000gn/T//ccNATSwE.s:4283   .debug_loc:0000027c .LVUS4
/var/folders/f1/r0m_vh_54tg0jls9tjh4vqkr0000gn/T//ccNATSwE.s:290    .text.add_key:00000010 .LBI18
/var/folders/f1/r0m_vh_54tg0jls9tjh4vqkr0000gn/T//ccNATSwE.s:289    .text.add_key:00000010 .LBB18
/var/folders/f1/r0m_vh_54tg0jls9tjh4vqkr0000gn/T//ccNATSwE.s:330    .text.add_key:00000040 .LBE18
/var/folders/f1/r0m_vh_54tg0jls9tjh4vqkr0000gn/T//ccNATSwE.s:4313   .debug_loc:000002b2 .LLST5
/var/folders/f1/r0m_vh_54tg0jls9tjh4vqkr0000gn/T//ccNATSwE.s:4308   .debug_loc:000002ae .LVUS5
/var/folders/f1/r0m_vh_54tg0jls9tjh4vqkr0000gn/T//ccNATSwE.s:4330   .debug_loc:000002d5 .LLST6
/var/folders/f1/r0m_vh_54tg0jls9tjh4vqkr0000gn/T//ccNATSwE.s:4327   .debug_loc:000002d3 .LVUS6
/var/folders/f1/r0m_vh_54tg0jls9tjh4vqkr0000gn/T//ccNATSwE.s:4342   .debug_loc:000002ec .LLST7
/var/folders/f1/r0m_vh_54tg0jls9tjh4vqkr0000gn/T//ccNATSwE.s:4337   .debug_loc:000002e8 .LVUS7
/var/folders/f1/r0m_vh_54tg0jls9tjh4vqkr0000gn/T//ccNATSwE.s:1005   .text.send_keyboard_report:00000000 .LFB116
/var/folders/f1/r0m_vh_54tg0jls9tjh4vqkr0000gn/T//ccNATSwE.s:1071   .text.send_keyboard_report:0000005e .LFE116
/var/folders/f1/r0m_vh_54tg0jls9tjh4vqkr0000gn/T//ccNATSwE.s:1056   .text.send_keyboard_report:0000004e .LBI39
/var/folders/f1/r0m_vh_54tg0jls9tjh4vqkr0000gn/T//ccNATSwE.s:1055   .text.send_keyboard_report:0000004e .LBB39
/var/folders/f1/r0m_vh_54tg0jls9tjh4vqkr0000gn/T//ccNATSwE.s:1064   .text.send_keyboard_report:00000052 .LBE39
/var/folders/f1/r0m_vh_54tg0jls9tjh4vqkr0000gn/T//ccNATSwE.s:1051   .text.send_keyboard_report:0000004c .LVL50
/var/folders/f1/r0m_vh_54tg0jls9tjh4vqkr0000gn/T//ccNATSwE.s:1069   .text.send_keyboard_report:0000005e .LVL51
/var/folders/f1/r0m_vh_54tg0jls9tjh4vqkr0000gn/T//ccNATSwE.s:237    .text.is_oneshot_layer_active:00000000 .LFB115
/var/folders/f1/r0m_vh_54tg0jls9tjh4vqkr0000gn/T//ccNATSwE.s:264    .text.is_oneshot_layer_active:0000000e .LFE115
/var/folders/f1/r0m_vh_54tg0jls9tjh4vqkr0000gn/T//ccNATSwE.s:246    .text.is_oneshot_layer_active:00000000 .LBI12
/var/folders/f1/r0m_vh_54tg0jls9tjh4vqkr0000gn/T//ccNATSwE.s:245    .text.is_oneshot_layer_active:00000000 .LBB12
/var/folders/f1/r0m_vh_54tg0jls9tjh4vqkr0000gn/T//ccNATSwE.s:254    .text.is_oneshot_layer_active:00000006 .LBE12
/var/folders/f1/r0m_vh_54tg0jls9tjh4vqkr0000gn/T//ccNATSwE.s:170    .text.clear_oneshot_layer_state:00000000 .LFB114
/var/folders/f1/r0m_vh_54tg0jls9tjh4vqkr0000gn/T//ccNATSwE.s:231    .text.clear_oneshot_layer_state:0000002c .LFE114
/var/folders/f1/r0m_vh_54tg0jls9tjh4vqkr0000gn/T//ccNATSwE.s:4360   .debug_loc:00000310 .LLST2
/var/folders/f1/r0m_vh_54tg0jls9tjh4vqkr0000gn/T//ccNATSwE.s:4353   .debug_loc:0000030a .LVUS2
/var/folders/f1/r0m_vh_54tg0jls9tjh4vqkr0000gn/T//ccNATSwE.s:4386   .debug_loc:00000343 .LLST3
/var/folders/f1/r0m_vh_54tg0jls9tjh4vqkr0000gn/T//ccNATSwE.s:4381   .debug_loc:0000033f .LVUS3
/var/folders/f1/r0m_vh_54tg0jls9tjh4vqkr0000gn/T//ccNATSwE.s:192    .text.clear_oneshot_layer_state:0000000c .LBI8
/var/folders/f1/r0m_vh_54tg0jls9tjh4vqkr0000gn/T//ccNATSwE.s:191    .text.clear_oneshot_layer_state:0000000c .LBB8
/var/folders/f1/r0m_vh_54tg0jls9tjh4vqkr0000gn/T//ccNATSwE.s:200    .text.clear_oneshot_layer_state:00000010 .LBE8
/var/folders/f1/r0m_vh_54tg0jls9tjh4vqkr0000gn/T//ccNATSwE.s:214    .text.clear_oneshot_layer_state:00000020 .LBI10
/var/folders/f1/r0m_vh_54tg0jls9tjh4vqkr0000gn/T//ccNATSwE.s:213    .text.clear_oneshot_layer_state:00000020 .LBB10
/var/folders/f1/r0m_vh_54tg0jls9tjh4vqkr0000gn/T//ccNATSwE.s:219    .text.clear_oneshot_layer_state:00000020 .LBE10
/var/folders/f1/r0m_vh_54tg0jls9tjh4vqkr0000gn/T//ccNATSwE.s:225    .text.clear_oneshot_layer_state:0000002a .LVL8
/var/folders/f1/r0m_vh_54tg0jls9tjh4vqkr0000gn/T//ccNATSwE.s:149    .text.reset_oneshot_layer:00000000 .LFB113
/var/folders/f1/r0m_vh_54tg0jls9tjh4vqkr0000gn/T//ccNATSwE.s:163    .text.reset_oneshot_layer:00000006 .LFE113
/var/folders/f1/r0m_vh_54tg0jls9tjh4vqkr0000gn/T//ccNATSwE.s:120    .text.set_oneshot_layer:00000000 .LFB112
/var/folders/f1/r0m_vh_54tg0jls9tjh4vqkr0000gn/T//ccNATSwE.s:143    .text.set_oneshot_layer:00000012 .LFE112
/var/folders/f1/r0m_vh_54tg0jls9tjh4vqkr0000gn/T//ccNATSwE.s:4402   .debug_loc:00000365 .LLST0
/var/folders/f1/r0m_vh_54tg0jls9tjh4vqkr0000gn/T//ccNATSwE.s:4397   .debug_loc:00000361 .LVUS0
/var/folders/f1/r0m_vh_54tg0jls9tjh4vqkr0000gn/T//ccNATSwE.s:4421   .debug_loc:0000038a .LLST1
/var/folders/f1/r0m_vh_54tg0jls9tjh4vqkr0000gn/T//ccNATSwE.s:4416   .debug_loc:00000386 .LVUS1
/var/folders/f1/r0m_vh_54tg0jls9tjh4vqkr0000gn/T//ccNATSwE.s:140    .text.set_oneshot_layer:00000012 .LVL3
/var/folders/f1/r0m_vh_54tg0jls9tjh4vqkr0000gn/T//ccNATSwE.s:55     .text.clear_oneshot_locked_mods:00000000 .LFB109
/var/folders/f1/r0m_vh_54tg0jls9tjh4vqkr0000gn/T//ccNATSwE.s:69     .text.clear_oneshot_locked_mods:00000006 .LFE109
/var/folders/f1/r0m_vh_54tg0jls9tjh4vqkr0000gn/T//ccNATSwE.s:35     .text.set_oneshot_locked_mods:00000000 .LFB108
/var/folders/f1/r0m_vh_54tg0jls9tjh4vqkr0000gn/T//ccNATSwE.s:49     .text.set_oneshot_locked_mods:00000006 .LFE108
/var/folders/f1/r0m_vh_54tg0jls9tjh4vqkr0000gn/T//ccNATSwE.s:14     .text.get_oneshot_locked_mods:00000000 .LFB107
/var/folders/f1/r0m_vh_54tg0jls9tjh4vqkr0000gn/T//ccNATSwE.s:28     .text.get_oneshot_locked_mods:00000006 .LFE107
/var/folders/f1/r0m_vh_54tg0jls9tjh4vqkr0000gn/T//ccNATSwE.s:75     .text.get_oneshot_layer:00000000 .LFB110
/var/folders/f1/r0m_vh_54tg0jls9tjh4vqkr0000gn/T//ccNATSwE.s:92     .text.get_oneshot_layer:0000000c .LFE110
/var/folders/f1/r0m_vh_54tg0jls9tjh4vqkr0000gn/T//ccNATSwE.s:98     .text.get_oneshot_layer_state:00000000 .LFB111
/var/folders/f1/r0m_vh_54tg0jls9tjh4vqkr0000gn/T//ccNATSwE.s:113    .text.get_oneshot_layer_state:00000008 .LFE111
/var/folders/f1/r0m_vh_54tg0jls9tjh4vqkr0000gn/T//ccNATSwE.s:911    .text.clear_oneshot_mods:00000000 .LFB136
/var/folders/f1/r0m_vh_54tg0jls9tjh4vqkr0000gn/T//ccNATSwE.s:925    .text.clear_oneshot_mods:00000006 .LFE136
/var/folders/f1/r0m_vh_54tg0jls9tjh4vqkr0000gn/T//ccNATSwE.s:1100   .text.get_first_key:00000002 .LCFI0
/var/folders/f1/r0m_vh_54tg0jls9tjh4vqkr0000gn/T//ccNATSwE.s:1104   .text.get_first_key:00000004 .LCFI1
/var/folders/f1/r0m_vh_54tg0jls9tjh4vqkr0000gn/T//ccNATSwE.s:1134   .text.get_first_key:00000026 .LVL53
/var/folders/f1/r0m_vh_54tg0jls9tjh4vqkr0000gn/T//ccNATSwE.s:1170   .text.get_first_key:00000048 .LVL57
/var/folders/f1/r0m_vh_54tg0jls9tjh4vqkr0000gn/T//ccNATSwE.s:958    .text.has_anykey:00000000 .LVL46
/var/folders/f1/r0m_vh_54tg0jls9tjh4vqkr0000gn/T//ccNATSwE.s:973    .text.has_anykey:00000012 .LVL47
/var/folders/f1/r0m_vh_54tg0jls9tjh4vqkr0000gn/T//ccNATSwE.s:979    .text.has_anykey:00000014 .LVL48
/var/folders/f1/r0m_vh_54tg0jls9tjh4vqkr0000gn/T//ccNATSwE.s:985    .text.has_anykey:00000018 .LVL49
/var/folders/f1/r0m_vh_54tg0jls9tjh4vqkr0000gn/T//ccNATSwE.s:823    .text.del_macro_mods:00000000 .LVL42
/var/folders/f1/r0m_vh_54tg0jls9tjh4vqkr0000gn/T//ccNATSwE.s:834    .text.del_macro_mods:00000002 .LVL43
/var/folders/f1/r0m_vh_54tg0jls9tjh4vqkr0000gn/T//ccNATSwE.s:798    .text.add_macro_mods:00000000 .LVL40
/var/folders/f1/r0m_vh_54tg0jls9tjh4vqkr0000gn/T//ccNATSwE.s:810    .text.add_macro_mods:00000006 .LVL41
/var/folders/f1/r0m_vh_54tg0jls9tjh4vqkr0000gn/T//ccNATSwE.s:712    .text.del_weak_mods:00000000 .LVL37
/var/folders/f1/r0m_vh_54tg0jls9tjh4vqkr0000gn/T//ccNATSwE.s:723    .text.del_weak_mods:00000002 .LVL38
/var/folders/f1/r0m_vh_54tg0jls9tjh4vqkr0000gn/T//ccNATSwE.s:687    .text.add_weak_mods:00000000 .LVL35
/var/folders/f1/r0m_vh_54tg0jls9tjh4vqkr0000gn/T//ccNATSwE.s:699    .text.add_weak_mods:00000006 .LVL36
/var/folders/f1/r0m_vh_54tg0jls9tjh4vqkr0000gn/T//ccNATSwE.s:601    .text.del_mods:00000000 .LVL32
/var/folders/f1/r0m_vh_54tg0jls9tjh4vqkr0000gn/T//ccNATSwE.s:612    .text.del_mods:00000002 .LVL33
/var/folders/f1/r0m_vh_54tg0jls9tjh4vqkr0000gn/T//ccNATSwE.s:576    .text.add_mods:00000000 .LVL30
/var/folders/f1/r0m_vh_54tg0jls9tjh4vqkr0000gn/T//ccNATSwE.s:588    .text.add_mods:00000006 .LVL31
/var/folders/f1/r0m_vh_54tg0jls9tjh4vqkr0000gn/T//ccNATSwE.s:520    .text.clear_keys:00000000 .LVL26
/var/folders/f1/r0m_vh_54tg0jls9tjh4vqkr0000gn/T//ccNATSwE.s:526    .text.clear_keys:00000004 .LVL27
/var/folders/f1/r0m_vh_54tg0jls9tjh4vqkr0000gn/T//ccNATSwE.s:538    .text.clear_keys:00000012 .LVL28
/var/folders/f1/r0m_vh_54tg0jls9tjh4vqkr0000gn/T//ccNATSwE.s:541    .text.clear_keys:00000014 .LVL29
/var/folders/f1/r0m_vh_54tg0jls9tjh4vqkr0000gn/T//ccNATSwE.s:400    .text.del_key:00000000 .LVL18
/var/folders/f1/r0m_vh_54tg0jls9tjh4vqkr0000gn/T//ccNATSwE.s:445    .text.del_key:00000032 .LVL20
/var/folders/f1/r0m_vh_54tg0jls9tjh4vqkr0000gn/T//ccNATSwE.s:459    .text.del_key:00000044 .LVL21
/var/folders/f1/r0m_vh_54tg0jls9tjh4vqkr0000gn/T//ccNATSwE.s:418    .text.del_key:00000010 .LVL19
/var/folders/f1/r0m_vh_54tg0jls9tjh4vqkr0000gn/T//ccNATSwE.s:474    .text.del_key:00000054 .LVL22
/var/folders/f1/r0m_vh_54tg0jls9tjh4vqkr0000gn/T//ccNATSwE.s:478    .text.del_key:00000056 .LVL23
/var/folders/f1/r0m_vh_54tg0jls9tjh4vqkr0000gn/T//ccNATSwE.s:489    .text.del_key:00000060 .LVL24
/var/folders/f1/r0m_vh_54tg0jls9tjh4vqkr0000gn/T//ccNATSwE.s:495    .text.del_key:00000066 .LVL25
/var/folders/f1/r0m_vh_54tg0jls9tjh4vqkr0000gn/T//ccNATSwE.s:270    .text.add_key:00000000 .LVL9
/var/folders/f1/r0m_vh_54tg0jls9tjh4vqkr0000gn/T//ccNATSwE.s:311    .text.add_key:0000002c .LVL11
/var/folders/f1/r0m_vh_54tg0jls9tjh4vqkr0000gn/T//ccNATSwE.s:326    .text.add_key:00000040 .LVL12
/var/folders/f1/r0m_vh_54tg0jls9tjh4vqkr0000gn/T//ccNATSwE.s:288    .text.add_key:00000010 .LVL10
/var/folders/f1/r0m_vh_54tg0jls9tjh4vqkr0000gn/T//ccNATSwE.s:341    .text.add_key:00000050 .LVL13
/var/folders/f1/r0m_vh_54tg0jls9tjh4vqkr0000gn/T//ccNATSwE.s:360    .text.add_key:00000062 .LVL15
/var/folders/f1/r0m_vh_54tg0jls9tjh4vqkr0000gn/T//ccNATSwE.s:370    .text.add_key:0000006a .LVL16
/var/folders/f1/r0m_vh_54tg0jls9tjh4vqkr0000gn/T//ccNATSwE.s:378    .text.add_key:0000006c .LVL17
/var/folders/f1/r0m_vh_54tg0jls9tjh4vqkr0000gn/T//ccNATSwE.s:169    .text.clear_oneshot_layer_state:00000000 .LVL4
/var/folders/f1/r0m_vh_54tg0jls9tjh4vqkr0000gn/T//ccNATSwE.s:184    .text.clear_oneshot_layer_state:00000006 .LVL6
/var/folders/f1/r0m_vh_54tg0jls9tjh4vqkr0000gn/T//ccNATSwE.s:187    .text.clear_oneshot_layer_state:00000008 .LVL7
/var/folders/f1/r0m_vh_54tg0jls9tjh4vqkr0000gn/T//ccNATSwE.s:180    .text.clear_oneshot_layer_state:00000004 .LVL5
/var/folders/f1/r0m_vh_54tg0jls9tjh4vqkr0000gn/T//ccNATSwE.s:119    .text.set_oneshot_layer:00000000 .LVL1
/var/folders/f1/r0m_vh_54tg0jls9tjh4vqkr0000gn/T//ccNATSwE.s:135    .text.set_oneshot_layer:0000000a .LVL2
/var/folders/f1/r0m_vh_54tg0jls9tjh4vqkr0000gn/T//ccNATSwE.s:1243   .debug_info:00000000 .Ldebug_info0
/var/folders/f1/r0m_vh_54tg0jls9tjh4vqkr0000gn/T//ccNATSwE.s:331    .text.add_key:00000040 .LBB20
/var/folders/f1/r0m_vh_54tg0jls9tjh4vqkr0000gn/T//ccNATSwE.s:375    .text.add_key:0000006a .LBE20
/var/folders/f1/r0m_vh_54tg0jls9tjh4vqkr0000gn/T//ccNATSwE.s:380    .text.add_key:0000006c .LBB23
/var/folders/f1/r0m_vh_54tg0jls9tjh4vqkr0000gn/T//ccNATSwE.s:392    .text.add_key:0000007a .LBE23
/var/folders/f1/r0m_vh_54tg0jls9tjh4vqkr0000gn/T//ccNATSwE.s:518    .text.clear_keys:00000000 .LBB33
/var/folders/f1/r0m_vh_54tg0jls9tjh4vqkr0000gn/T//ccNATSwE.s:522    .text.clear_keys:00000000 .LBE33
/var/folders/f1/r0m_vh_54tg0jls9tjh4vqkr0000gn/T//ccNATSwE.s:528    .text.clear_keys:00000004 .LBB34
/var/folders/f1/r0m_vh_54tg0jls9tjh4vqkr0000gn/T//ccNATSwE.s:547    .text.clear_keys:0000001a .LBE34
/var/folders/f1/r0m_vh_54tg0jls9tjh4vqkr0000gn/T//ccNATSwE.s:960    .text.has_anykey:00000000 .LBB35
/var/folders/f1/r0m_vh_54tg0jls9tjh4vqkr0000gn/T//ccNATSwE.s:970    .text.has_anykey:00000010 .LBE35
/var/folders/f1/r0m_vh_54tg0jls9tjh4vqkr0000gn/T//ccNATSwE.s:975    .text.has_anykey:00000012 .LBB36
/var/folders/f1/r0m_vh_54tg0jls9tjh4vqkr0000gn/T//ccNATSwE.s:995    .text.has_anykey:0000001e .LBE36
/var/folders/f1/r0m_vh_54tg0jls9tjh4vqkr0000gn/T//ccNATSwE.s:1122   .text.get_first_key:0000001c .LBB41
/var/folders/f1/r0m_vh_54tg0jls9tjh4vqkr0000gn/T//ccNATSwE.s:1125   .text.get_first_key:0000001e .LBE41
/var/folders/f1/r0m_vh_54tg0jls9tjh4vqkr0000gn/T//ccNATSwE.s:1136   .text.get_first_key:00000026 .LBB42
/var/folders/f1/r0m_vh_54tg0jls9tjh4vqkr0000gn/T//ccNATSwE.s:1176   .text.get_first_key:0000004a .LBE42

UNDEFINED SYMBOLS
layer_on
layer_off
keyboard_protocol
keymap_config
host_keyboard_send
bitpop
biton
__do_copy_data
__do_clear_bss
