   1               		.file	"timer.c"
   2               	__SP_H__ = 0x3e
   3               	__SP_L__ = 0x3d
   4               	__SREG__ = 0x3f
   5               	__tmp_reg__ = 0
   6               	__zero_reg__ = 1
   7               		.text
   8               	.Ltext0:
   9               		.cfi_sections	.debug_frame
  10               		.section	.text.timer_init,"ax",@progbits
  11               	.global	timer_init
  13               	timer_init:
  14               	.LFB5:
  15               		.file 1 "./tmk_core/common/avr/timer.c"
   1:./tmk_core/common/avr/timer.c **** /*
   2:./tmk_core/common/avr/timer.c **** Copyright 2011 Jun Wako <wakojun@gmail.com>
   3:./tmk_core/common/avr/timer.c **** 
   4:./tmk_core/common/avr/timer.c **** This program is free software: you can redistribute it and/or modify
   5:./tmk_core/common/avr/timer.c **** it under the terms of the GNU General Public License as published by
   6:./tmk_core/common/avr/timer.c **** the Free Software Foundation, either version 2 of the License, or
   7:./tmk_core/common/avr/timer.c **** (at your option) any later version.
   8:./tmk_core/common/avr/timer.c **** 
   9:./tmk_core/common/avr/timer.c **** This program is distributed in the hope that it will be useful,
  10:./tmk_core/common/avr/timer.c **** but WITHOUT ANY WARRANTY; without even the implied warranty of
  11:./tmk_core/common/avr/timer.c **** MERCHANTABILITY or FITNESS FOR A PARTICULAR PURPOSE.  See the
  12:./tmk_core/common/avr/timer.c **** GNU General Public License for more details.
  13:./tmk_core/common/avr/timer.c **** 
  14:./tmk_core/common/avr/timer.c **** You should have received a copy of the GNU General Public License
  15:./tmk_core/common/avr/timer.c **** along with this program.  If not, see <http://www.gnu.org/licenses/>.
  16:./tmk_core/common/avr/timer.c **** */
  17:./tmk_core/common/avr/timer.c **** 
  18:./tmk_core/common/avr/timer.c **** #include <avr/io.h>
  19:./tmk_core/common/avr/timer.c **** #include <avr/interrupt.h>
  20:./tmk_core/common/avr/timer.c **** #include <util/atomic.h>
  21:./tmk_core/common/avr/timer.c **** #include <stdint.h>
  22:./tmk_core/common/avr/timer.c **** #include "timer_avr.h"
  23:./tmk_core/common/avr/timer.c **** #include "timer.h"
  24:./tmk_core/common/avr/timer.c **** 
  25:./tmk_core/common/avr/timer.c **** 
  26:./tmk_core/common/avr/timer.c **** // counter resolution 1ms
  27:./tmk_core/common/avr/timer.c **** // NOTE: union { uint32_t timer32; struct { uint16_t dummy; uint16_t timer16; }}
  28:./tmk_core/common/avr/timer.c **** volatile uint32_t timer_count;
  29:./tmk_core/common/avr/timer.c **** 
  30:./tmk_core/common/avr/timer.c **** void timer_init(void)
  31:./tmk_core/common/avr/timer.c **** {
  16               		.loc 1 31 1 view -0
  17               		.cfi_startproc
  18               	/* prologue: function */
  19               	/* frame size = 0 */
  20               	/* stack size = 0 */
  21               	.L__stack_usage = 0
  32:./tmk_core/common/avr/timer.c ****     // Timer0 CTC mode
  33:./tmk_core/common/avr/timer.c ****     TCCR0A = 0x02;
  22               		.loc 1 33 5 view .LVU1
  23               		.loc 1 33 12 is_stmt 0 view .LVU2
  24 0000 82E0      		ldi r24,lo8(2)
  25 0002 84BD      		out 0x24,r24
  34:./tmk_core/common/avr/timer.c **** 
  35:./tmk_core/common/avr/timer.c **** #if TIMER_PRESCALER == 1
  36:./tmk_core/common/avr/timer.c ****     TCCR0B = 0x01;
  37:./tmk_core/common/avr/timer.c **** #elif TIMER_PRESCALER == 8
  38:./tmk_core/common/avr/timer.c ****     TCCR0B = 0x02;
  39:./tmk_core/common/avr/timer.c **** #elif TIMER_PRESCALER == 64
  40:./tmk_core/common/avr/timer.c ****     TCCR0B = 0x03;
  26               		.loc 1 40 5 is_stmt 1 view .LVU3
  27               		.loc 1 40 12 is_stmt 0 view .LVU4
  28 0004 93E0      		ldi r25,lo8(3)
  29 0006 95BD      		out 0x25,r25
  41:./tmk_core/common/avr/timer.c **** #elif TIMER_PRESCALER == 256
  42:./tmk_core/common/avr/timer.c ****     TCCR0B = 0x04;
  43:./tmk_core/common/avr/timer.c **** #elif TIMER_PRESCALER == 1024
  44:./tmk_core/common/avr/timer.c ****     TCCR0B = 0x05;
  45:./tmk_core/common/avr/timer.c **** #else
  46:./tmk_core/common/avr/timer.c **** #   error "Timer prescaler value is NOT vaild."
  47:./tmk_core/common/avr/timer.c **** #endif
  48:./tmk_core/common/avr/timer.c **** 
  49:./tmk_core/common/avr/timer.c ****     OCR0A = TIMER_RAW_TOP;
  30               		.loc 1 49 5 is_stmt 1 view .LVU5
  31               		.loc 1 49 11 is_stmt 0 view .LVU6
  32 0008 9AEF      		ldi r25,lo8(-6)
  33 000a 97BD      		out 0x27,r25
  50:./tmk_core/common/avr/timer.c ****     TIMSK0 = (1<<OCIE0A);
  34               		.loc 1 50 5 is_stmt 1 view .LVU7
  35               		.loc 1 50 12 is_stmt 0 view .LVU8
  36 000c 8093 6E00 		sts 110,r24
  37               	/* epilogue start */
  51:./tmk_core/common/avr/timer.c **** }
  38               		.loc 1 51 1 view .LVU9
  39 0010 0895      		ret
  40               		.cfi_endproc
  41               	.LFE5:
  43               		.section	.text.timer_clear,"ax",@progbits
  44               	.global	timer_clear
  46               	timer_clear:
  47               	.LFB6:
  52:./tmk_core/common/avr/timer.c **** 
  53:./tmk_core/common/avr/timer.c **** inline
  54:./tmk_core/common/avr/timer.c **** void timer_clear(void)
  55:./tmk_core/common/avr/timer.c **** {
  48               		.loc 1 55 1 is_stmt 1 view -0
  49               		.cfi_startproc
  50               	/* prologue: function */
  51               	/* frame size = 0 */
  52               	/* stack size = 0 */
  53               	.L__stack_usage = 0
  56:./tmk_core/common/avr/timer.c ****   ATOMIC_BLOCK(ATOMIC_RESTORESTATE) {
  54               		.loc 1 56 3 view .LVU11
  55               	.LBB27:
  56               		.loc 1 56 3 view .LVU12
  57 0000 8FB7      		in r24,__SREG__
  58               	.LVL0:
  59               	.LBB28:
  60               	.LBI28:
  61               		.file 2 "/usr/local/Cellar/avr-gcc@8/8.5.0_1/avr/include/util/atomic.h"
   1:/usr/local/Cellar/avr-gcc@8/8.5.0_1/avr/include/util/atomic.h **** /* Copyright (c) 2007 Dean Camera
   2:/usr/local/Cellar/avr-gcc@8/8.5.0_1/avr/include/util/atomic.h ****    All rights reserved.
   3:/usr/local/Cellar/avr-gcc@8/8.5.0_1/avr/include/util/atomic.h **** 
   4:/usr/local/Cellar/avr-gcc@8/8.5.0_1/avr/include/util/atomic.h ****    Redistribution and use in source and binary forms, with or without
   5:/usr/local/Cellar/avr-gcc@8/8.5.0_1/avr/include/util/atomic.h ****    modification, are permitted provided that the following conditions are met:
   6:/usr/local/Cellar/avr-gcc@8/8.5.0_1/avr/include/util/atomic.h **** 
   7:/usr/local/Cellar/avr-gcc@8/8.5.0_1/avr/include/util/atomic.h ****    * Redistributions of source code must retain the above copyright
   8:/usr/local/Cellar/avr-gcc@8/8.5.0_1/avr/include/util/atomic.h ****      notice, this list of conditions and the following disclaimer.
   9:/usr/local/Cellar/avr-gcc@8/8.5.0_1/avr/include/util/atomic.h **** 
  10:/usr/local/Cellar/avr-gcc@8/8.5.0_1/avr/include/util/atomic.h ****    * Redistributions in binary form must reproduce the above copyright
  11:/usr/local/Cellar/avr-gcc@8/8.5.0_1/avr/include/util/atomic.h ****      notice, this list of conditions and the following disclaimer in
  12:/usr/local/Cellar/avr-gcc@8/8.5.0_1/avr/include/util/atomic.h ****      the documentation and/or other materials provided with the
  13:/usr/local/Cellar/avr-gcc@8/8.5.0_1/avr/include/util/atomic.h ****      distribution.
  14:/usr/local/Cellar/avr-gcc@8/8.5.0_1/avr/include/util/atomic.h **** 
  15:/usr/local/Cellar/avr-gcc@8/8.5.0_1/avr/include/util/atomic.h ****    * Neither the name of the copyright holders nor the names of
  16:/usr/local/Cellar/avr-gcc@8/8.5.0_1/avr/include/util/atomic.h ****      contributors may be used to endorse or promote products derived
  17:/usr/local/Cellar/avr-gcc@8/8.5.0_1/avr/include/util/atomic.h ****      from this software without specific prior written permission.
  18:/usr/local/Cellar/avr-gcc@8/8.5.0_1/avr/include/util/atomic.h **** 
  19:/usr/local/Cellar/avr-gcc@8/8.5.0_1/avr/include/util/atomic.h ****   THIS SOFTWARE IS PROVIDED BY THE COPYRIGHT HOLDERS AND CONTRIBUTORS "AS IS"
  20:/usr/local/Cellar/avr-gcc@8/8.5.0_1/avr/include/util/atomic.h ****   AND ANY EXPRESS OR IMPLIED WARRANTIES, INCLUDING, BUT NOT LIMITED TO, THE
  21:/usr/local/Cellar/avr-gcc@8/8.5.0_1/avr/include/util/atomic.h ****   IMPLIED WARRANTIES OF MERCHANTABILITY AND FITNESS FOR A PARTICULAR PURPOSE
  22:/usr/local/Cellar/avr-gcc@8/8.5.0_1/avr/include/util/atomic.h ****   ARE DISCLAIMED. IN NO EVENT SHALL THE COPYRIGHT OWNER OR CONTRIBUTORS BE
  23:/usr/local/Cellar/avr-gcc@8/8.5.0_1/avr/include/util/atomic.h ****   LIABLE FOR ANY DIRECT, INDIRECT, INCIDENTAL, SPECIAL, EXEMPLARY, OR
  24:/usr/local/Cellar/avr-gcc@8/8.5.0_1/avr/include/util/atomic.h ****   CONSEQUENTIAL DAMAGES (INCLUDING, BUT NOT LIMITED TO, PROCUREMENT OF
  25:/usr/local/Cellar/avr-gcc@8/8.5.0_1/avr/include/util/atomic.h ****   SUBSTITUTE GOODS OR SERVICES; LOSS OF USE, DATA, OR PROFITS; OR BUSINESS
  26:/usr/local/Cellar/avr-gcc@8/8.5.0_1/avr/include/util/atomic.h ****   INTERRUPTION) HOWEVER CAUSED AND ON ANY THEORY OF LIABILITY, WHETHER IN
  27:/usr/local/Cellar/avr-gcc@8/8.5.0_1/avr/include/util/atomic.h ****   CONTRACT, STRICT LIABILITY, OR TORT (INCLUDING NEGLIGENCE OR OTHERWISE)
  28:/usr/local/Cellar/avr-gcc@8/8.5.0_1/avr/include/util/atomic.h ****   ARISING IN ANY WAY OUT OF THE USE OF THIS SOFTWARE, EVEN IF ADVISED OF THE
  29:/usr/local/Cellar/avr-gcc@8/8.5.0_1/avr/include/util/atomic.h ****   POSSIBILITY OF SUCH DAMAGE.
  30:/usr/local/Cellar/avr-gcc@8/8.5.0_1/avr/include/util/atomic.h **** */
  31:/usr/local/Cellar/avr-gcc@8/8.5.0_1/avr/include/util/atomic.h **** 
  32:/usr/local/Cellar/avr-gcc@8/8.5.0_1/avr/include/util/atomic.h **** /* $Id: atomic.h 2541 2017-06-11 15:41:47Z joerg_wunsch $ */
  33:/usr/local/Cellar/avr-gcc@8/8.5.0_1/avr/include/util/atomic.h **** 
  34:/usr/local/Cellar/avr-gcc@8/8.5.0_1/avr/include/util/atomic.h **** #ifndef _UTIL_ATOMIC_H_
  35:/usr/local/Cellar/avr-gcc@8/8.5.0_1/avr/include/util/atomic.h **** #define _UTIL_ATOMIC_H_ 1
  36:/usr/local/Cellar/avr-gcc@8/8.5.0_1/avr/include/util/atomic.h **** 
  37:/usr/local/Cellar/avr-gcc@8/8.5.0_1/avr/include/util/atomic.h **** #include <avr/io.h>
  38:/usr/local/Cellar/avr-gcc@8/8.5.0_1/avr/include/util/atomic.h **** #include <avr/interrupt.h>
  39:/usr/local/Cellar/avr-gcc@8/8.5.0_1/avr/include/util/atomic.h **** 
  40:/usr/local/Cellar/avr-gcc@8/8.5.0_1/avr/include/util/atomic.h **** #if !defined(__DOXYGEN__)
  41:/usr/local/Cellar/avr-gcc@8/8.5.0_1/avr/include/util/atomic.h **** /* Internal helper functions. */
  42:/usr/local/Cellar/avr-gcc@8/8.5.0_1/avr/include/util/atomic.h **** static __inline__ uint8_t __iSeiRetVal(void)
  43:/usr/local/Cellar/avr-gcc@8/8.5.0_1/avr/include/util/atomic.h **** {
  44:/usr/local/Cellar/avr-gcc@8/8.5.0_1/avr/include/util/atomic.h ****     sei();
  45:/usr/local/Cellar/avr-gcc@8/8.5.0_1/avr/include/util/atomic.h ****     return 1;
  46:/usr/local/Cellar/avr-gcc@8/8.5.0_1/avr/include/util/atomic.h **** }
  47:/usr/local/Cellar/avr-gcc@8/8.5.0_1/avr/include/util/atomic.h **** 
  48:/usr/local/Cellar/avr-gcc@8/8.5.0_1/avr/include/util/atomic.h **** static __inline__ uint8_t __iCliRetVal(void)
  62               		.loc 2 48 27 view .LVU13
  63               	.LBB29:
  49:/usr/local/Cellar/avr-gcc@8/8.5.0_1/avr/include/util/atomic.h **** {
  50:/usr/local/Cellar/avr-gcc@8/8.5.0_1/avr/include/util/atomic.h ****     cli();
  64               		.loc 2 50 5 view .LVU14
  65               	/* #APP */
  66               	 ;  50 "/usr/local/Cellar/avr-gcc@8/8.5.0_1/avr/include/util/atomic.h" 1
  67 0002 F894      		cli
  68               	 ;  0 "" 2
  51:/usr/local/Cellar/avr-gcc@8/8.5.0_1/avr/include/util/atomic.h ****     return 1;
  69               		.loc 2 51 5 view .LVU15
  70               	.LVL1:
  71               		.loc 2 51 5 is_stmt 0 view .LVU16
  72               	/* #NOAPP */
  73               	.LBE29:
  74               	.LBE28:
  75               		.loc 1 56 3 is_stmt 1 view .LVU17
  57:./tmk_core/common/avr/timer.c ****     timer_count = 0;
  76               		.loc 1 57 5 view .LVU18
  77               		.loc 1 57 17 is_stmt 0 view .LVU19
  78 0004 1092 0000 		sts timer_count,__zero_reg__
  79 0008 1092 0000 		sts timer_count+1,__zero_reg__
  80 000c 1092 0000 		sts timer_count+2,__zero_reg__
  81 0010 1092 0000 		sts timer_count+3,__zero_reg__
  56:./tmk_core/common/avr/timer.c ****     timer_count = 0;
  82               		.loc 1 56 3 is_stmt 1 view .LVU20
  83               	.LVL2:
  56:./tmk_core/common/avr/timer.c ****     timer_count = 0;
  84               		.loc 1 56 3 view .LVU21
  85               	.LBB30:
  86               	.LBI30:
  52:/usr/local/Cellar/avr-gcc@8/8.5.0_1/avr/include/util/atomic.h **** }
  53:/usr/local/Cellar/avr-gcc@8/8.5.0_1/avr/include/util/atomic.h **** 
  54:/usr/local/Cellar/avr-gcc@8/8.5.0_1/avr/include/util/atomic.h **** static __inline__ void __iSeiParam(const uint8_t *__s)
  55:/usr/local/Cellar/avr-gcc@8/8.5.0_1/avr/include/util/atomic.h **** {
  56:/usr/local/Cellar/avr-gcc@8/8.5.0_1/avr/include/util/atomic.h ****     sei();
  57:/usr/local/Cellar/avr-gcc@8/8.5.0_1/avr/include/util/atomic.h ****     __asm__ volatile ("" ::: "memory");
  58:/usr/local/Cellar/avr-gcc@8/8.5.0_1/avr/include/util/atomic.h ****     (void)__s;
  59:/usr/local/Cellar/avr-gcc@8/8.5.0_1/avr/include/util/atomic.h **** }
  60:/usr/local/Cellar/avr-gcc@8/8.5.0_1/avr/include/util/atomic.h **** 
  61:/usr/local/Cellar/avr-gcc@8/8.5.0_1/avr/include/util/atomic.h **** static __inline__ void __iCliParam(const uint8_t *__s)
  62:/usr/local/Cellar/avr-gcc@8/8.5.0_1/avr/include/util/atomic.h **** {
  63:/usr/local/Cellar/avr-gcc@8/8.5.0_1/avr/include/util/atomic.h ****     cli();
  64:/usr/local/Cellar/avr-gcc@8/8.5.0_1/avr/include/util/atomic.h ****     __asm__ volatile ("" ::: "memory");
  65:/usr/local/Cellar/avr-gcc@8/8.5.0_1/avr/include/util/atomic.h ****     (void)__s;
  66:/usr/local/Cellar/avr-gcc@8/8.5.0_1/avr/include/util/atomic.h **** }
  67:/usr/local/Cellar/avr-gcc@8/8.5.0_1/avr/include/util/atomic.h **** 
  68:/usr/local/Cellar/avr-gcc@8/8.5.0_1/avr/include/util/atomic.h **** static __inline__ void __iRestore(const  uint8_t *__s)
  87               		.loc 2 68 24 view .LVU22
  88               	.LBB31:
  69:/usr/local/Cellar/avr-gcc@8/8.5.0_1/avr/include/util/atomic.h **** {
  70:/usr/local/Cellar/avr-gcc@8/8.5.0_1/avr/include/util/atomic.h ****     SREG = *__s;
  89               		.loc 2 70 5 view .LVU23
  90               		.loc 2 70 10 is_stmt 0 view .LVU24
  91 0014 8FBF      		out __SREG__,r24
  71:/usr/local/Cellar/avr-gcc@8/8.5.0_1/avr/include/util/atomic.h ****     __asm__ volatile ("" ::: "memory");
  92               		.loc 2 71 5 is_stmt 1 view .LVU25
  93               	.LVL3:
  94               	/* epilogue start */
  95               		.loc 2 71 5 is_stmt 0 view .LVU26
  96               	.LBE31:
  97               	.LBE30:
  98               	.LBE27:
  58:./tmk_core/common/avr/timer.c ****   }
  59:./tmk_core/common/avr/timer.c **** }
  99               		.loc 1 59 1 view .LVU27
 100 0016 0895      		ret
 101               		.cfi_endproc
 102               	.LFE6:
 104               		.section	.text.timer_read,"ax",@progbits
 105               	.global	timer_read
 107               	timer_read:
 108               	.LFB7:
  60:./tmk_core/common/avr/timer.c **** 
  61:./tmk_core/common/avr/timer.c **** inline
  62:./tmk_core/common/avr/timer.c **** uint16_t timer_read(void)
  63:./tmk_core/common/avr/timer.c **** {
 109               		.loc 1 63 1 is_stmt 1 view -0
 110               		.cfi_startproc
 111               	/* prologue: function */
 112               	/* frame size = 0 */
 113               	/* stack size = 0 */
 114               	.L__stack_usage = 0
  64:./tmk_core/common/avr/timer.c ****     uint32_t t;
 115               		.loc 1 64 5 view .LVU29
  65:./tmk_core/common/avr/timer.c **** 
  66:./tmk_core/common/avr/timer.c ****     ATOMIC_BLOCK(ATOMIC_RESTORESTATE) {
 116               		.loc 1 66 5 view .LVU30
 117               	.LBB32:
 118               		.loc 1 66 5 view .LVU31
 119 0000 2FB7      		in r18,__SREG__
 120               	.LVL4:
 121               	.LBB33:
 122               	.LBI33:
  48:/usr/local/Cellar/avr-gcc@8/8.5.0_1/avr/include/util/atomic.h **** {
 123               		.loc 2 48 27 view .LVU32
 124               	.LBB34:
  50:/usr/local/Cellar/avr-gcc@8/8.5.0_1/avr/include/util/atomic.h ****     return 1;
 125               		.loc 2 50 5 view .LVU33
 126               	/* #APP */
 127               	 ;  50 "/usr/local/Cellar/avr-gcc@8/8.5.0_1/avr/include/util/atomic.h" 1
 128 0002 F894      		cli
 129               	 ;  0 "" 2
  51:/usr/local/Cellar/avr-gcc@8/8.5.0_1/avr/include/util/atomic.h **** }
 130               		.loc 2 51 5 view .LVU34
 131               	.LVL5:
  51:/usr/local/Cellar/avr-gcc@8/8.5.0_1/avr/include/util/atomic.h **** }
 132               		.loc 2 51 5 is_stmt 0 view .LVU35
 133               	/* #NOAPP */
 134               	.LBE34:
 135               	.LBE33:
 136               		.loc 1 66 5 is_stmt 1 view .LVU36
  67:./tmk_core/common/avr/timer.c ****       t = timer_count;
 137               		.loc 1 67 7 view .LVU37
 138               		.loc 1 67 9 is_stmt 0 view .LVU38
 139 0004 8091 0000 		lds r24,timer_count
 140 0008 9091 0000 		lds r25,timer_count+1
 141 000c A091 0000 		lds r26,timer_count+2
 142 0010 B091 0000 		lds r27,timer_count+3
  66:./tmk_core/common/avr/timer.c ****       t = timer_count;
 143               		.loc 1 66 5 is_stmt 1 view .LVU39
 144               	.LVL6:
  66:./tmk_core/common/avr/timer.c ****       t = timer_count;
 145               		.loc 1 66 5 view .LVU40
 146               	.LBB35:
 147               	.LBI35:
  68:/usr/local/Cellar/avr-gcc@8/8.5.0_1/avr/include/util/atomic.h **** {
 148               		.loc 2 68 24 view .LVU41
 149               	.LBB36:
  70:/usr/local/Cellar/avr-gcc@8/8.5.0_1/avr/include/util/atomic.h ****     __asm__ volatile ("" ::: "memory");
 150               		.loc 2 70 5 view .LVU42
  70:/usr/local/Cellar/avr-gcc@8/8.5.0_1/avr/include/util/atomic.h ****     __asm__ volatile ("" ::: "memory");
 151               		.loc 2 70 10 is_stmt 0 view .LVU43
 152 0014 2FBF      		out __SREG__,r18
 153               		.loc 2 71 5 is_stmt 1 view .LVU44
 154               	.LVL7:
 155               		.loc 2 71 5 is_stmt 0 view .LVU45
 156               	.LBE36:
 157               	.LBE35:
 158               	.LBE32:
  68:./tmk_core/common/avr/timer.c ****     }
  69:./tmk_core/common/avr/timer.c **** 
  70:./tmk_core/common/avr/timer.c ****     return (t & 0xFFFF);
 159               		.loc 1 70 5 is_stmt 1 view .LVU46
 160               	/* epilogue start */
  71:./tmk_core/common/avr/timer.c **** }
 161               		.loc 1 71 1 is_stmt 0 view .LVU47
 162 0016 0895      		ret
 163               		.cfi_endproc
 164               	.LFE7:
 166               		.section	.text.timer_read32,"ax",@progbits
 167               	.global	timer_read32
 169               	timer_read32:
 170               	.LFB8:
  72:./tmk_core/common/avr/timer.c **** 
  73:./tmk_core/common/avr/timer.c **** inline
  74:./tmk_core/common/avr/timer.c **** uint32_t timer_read32(void)
  75:./tmk_core/common/avr/timer.c **** {
 171               		.loc 1 75 1 is_stmt 1 view -0
 172               		.cfi_startproc
 173               	/* prologue: function */
 174               	/* frame size = 0 */
 175               	/* stack size = 0 */
 176               	.L__stack_usage = 0
  76:./tmk_core/common/avr/timer.c ****     uint32_t t;
 177               		.loc 1 76 5 view .LVU49
  77:./tmk_core/common/avr/timer.c **** 
  78:./tmk_core/common/avr/timer.c ****     ATOMIC_BLOCK(ATOMIC_RESTORESTATE) {
 178               		.loc 1 78 5 view .LVU50
 179               	.LBB37:
 180               		.loc 1 78 5 view .LVU51
 181 0000 2FB7      		in r18,__SREG__
 182               	.LVL8:
 183               	.LBB38:
 184               	.LBI38:
  48:/usr/local/Cellar/avr-gcc@8/8.5.0_1/avr/include/util/atomic.h **** {
 185               		.loc 2 48 27 view .LVU52
 186               	.LBB39:
  50:/usr/local/Cellar/avr-gcc@8/8.5.0_1/avr/include/util/atomic.h ****     return 1;
 187               		.loc 2 50 5 view .LVU53
 188               	/* #APP */
 189               	 ;  50 "/usr/local/Cellar/avr-gcc@8/8.5.0_1/avr/include/util/atomic.h" 1
 190 0002 F894      		cli
 191               	 ;  0 "" 2
  51:/usr/local/Cellar/avr-gcc@8/8.5.0_1/avr/include/util/atomic.h **** }
 192               		.loc 2 51 5 view .LVU54
 193               	.LVL9:
  51:/usr/local/Cellar/avr-gcc@8/8.5.0_1/avr/include/util/atomic.h **** }
 194               		.loc 2 51 5 is_stmt 0 view .LVU55
 195               	/* #NOAPP */
 196               	.LBE39:
 197               	.LBE38:
 198               		.loc 1 78 5 is_stmt 1 view .LVU56
  79:./tmk_core/common/avr/timer.c ****       t = timer_count;
 199               		.loc 1 79 7 view .LVU57
 200               		.loc 1 79 9 is_stmt 0 view .LVU58
 201 0004 6091 0000 		lds r22,timer_count
 202 0008 7091 0000 		lds r23,timer_count+1
 203 000c 8091 0000 		lds r24,timer_count+2
 204 0010 9091 0000 		lds r25,timer_count+3
 205               	.LVL10:
  78:./tmk_core/common/avr/timer.c ****       t = timer_count;
 206               		.loc 1 78 5 is_stmt 1 view .LVU59
  78:./tmk_core/common/avr/timer.c ****       t = timer_count;
 207               		.loc 1 78 5 view .LVU60
 208               	.LBB40:
 209               	.LBI40:
  68:/usr/local/Cellar/avr-gcc@8/8.5.0_1/avr/include/util/atomic.h **** {
 210               		.loc 2 68 24 view .LVU61
 211               	.LBB41:
  70:/usr/local/Cellar/avr-gcc@8/8.5.0_1/avr/include/util/atomic.h ****     __asm__ volatile ("" ::: "memory");
 212               		.loc 2 70 5 view .LVU62
  70:/usr/local/Cellar/avr-gcc@8/8.5.0_1/avr/include/util/atomic.h ****     __asm__ volatile ("" ::: "memory");
 213               		.loc 2 70 10 is_stmt 0 view .LVU63
 214 0014 2FBF      		out __SREG__,r18
 215               		.loc 2 71 5 is_stmt 1 view .LVU64
 216               	.LVL11:
 217               		.loc 2 71 5 is_stmt 0 view .LVU65
 218               	.LBE41:
 219               	.LBE40:
 220               	.LBE37:
  80:./tmk_core/common/avr/timer.c ****     }
  81:./tmk_core/common/avr/timer.c **** 
  82:./tmk_core/common/avr/timer.c ****     return t;
 221               		.loc 1 82 5 is_stmt 1 view .LVU66
 222               	/* epilogue start */
  83:./tmk_core/common/avr/timer.c **** }
 223               		.loc 1 83 1 is_stmt 0 view .LVU67
 224 0016 0895      		ret
 225               		.cfi_endproc
 226               	.LFE8:
 228               		.section	.text.timer_elapsed,"ax",@progbits
 229               	.global	timer_elapsed
 231               	timer_elapsed:
 232               	.LVL12:
 233               	.LFB9:
  84:./tmk_core/common/avr/timer.c **** 
  85:./tmk_core/common/avr/timer.c **** inline
  86:./tmk_core/common/avr/timer.c **** uint16_t timer_elapsed(uint16_t last)
  87:./tmk_core/common/avr/timer.c **** {
 234               		.loc 1 87 1 is_stmt 1 view -0
 235               		.cfi_startproc
 236               		.loc 1 87 1 is_stmt 0 view .LVU69
 237 0000 CF92      		push r12
 238               	.LCFI0:
 239               		.cfi_def_cfa_offset 3
 240               		.cfi_offset 12, -2
 241 0002 DF92      		push r13
 242               	.LCFI1:
 243               		.cfi_def_cfa_offset 4
 244               		.cfi_offset 13, -3
 245 0004 EF92      		push r14
 246               	.LCFI2:
 247               		.cfi_def_cfa_offset 5
 248               		.cfi_offset 14, -4
 249 0006 FF92      		push r15
 250               	.LCFI3:
 251               		.cfi_def_cfa_offset 6
 252               		.cfi_offset 15, -5
 253 0008 0F93      		push r16
 254               	.LCFI4:
 255               		.cfi_def_cfa_offset 7
 256               		.cfi_offset 16, -6
 257 000a 1F93      		push r17
 258               	.LCFI5:
 259               		.cfi_def_cfa_offset 8
 260               		.cfi_offset 17, -7
 261               	/* prologue: function */
 262               	/* frame size = 0 */
 263               	/* stack size = 6 */
 264               	.L__stack_usage = 6
  88:./tmk_core/common/avr/timer.c ****     uint32_t t;
 265               		.loc 1 88 5 is_stmt 1 view .LVU70
  89:./tmk_core/common/avr/timer.c **** 
  90:./tmk_core/common/avr/timer.c ****     ATOMIC_BLOCK(ATOMIC_RESTORESTATE) {
 266               		.loc 1 90 5 view .LVU71
 267               	.LBB42:
 268               		.loc 1 90 5 view .LVU72
 269 000c 2FB7      		in r18,__SREG__
 270               	.LVL13:
 271               	.LBB43:
 272               	.LBI43:
  48:/usr/local/Cellar/avr-gcc@8/8.5.0_1/avr/include/util/atomic.h **** {
 273               		.loc 2 48 27 view .LVU73
 274               	.LBB44:
  50:/usr/local/Cellar/avr-gcc@8/8.5.0_1/avr/include/util/atomic.h ****     return 1;
 275               		.loc 2 50 5 view .LVU74
 276               	/* #APP */
 277               	 ;  50 "/usr/local/Cellar/avr-gcc@8/8.5.0_1/avr/include/util/atomic.h" 1
 278 000e F894      		cli
 279               	 ;  0 "" 2
  51:/usr/local/Cellar/avr-gcc@8/8.5.0_1/avr/include/util/atomic.h **** }
 280               		.loc 2 51 5 view .LVU75
 281               	.LVL14:
  51:/usr/local/Cellar/avr-gcc@8/8.5.0_1/avr/include/util/atomic.h **** }
 282               		.loc 2 51 5 is_stmt 0 view .LVU76
 283               	/* #NOAPP */
 284               	.LBE44:
 285               	.LBE43:
 286               		.loc 1 90 5 is_stmt 1 view .LVU77
  91:./tmk_core/common/avr/timer.c ****       t = timer_count;
 287               		.loc 1 91 7 view .LVU78
 288               		.loc 1 91 9 is_stmt 0 view .LVU79
 289 0010 4091 0000 		lds r20,timer_count
 290 0014 5091 0000 		lds r21,timer_count+1
 291 0018 6091 0000 		lds r22,timer_count+2
 292 001c 7091 0000 		lds r23,timer_count+3
 293               	.LVL15:
  90:./tmk_core/common/avr/timer.c ****       t = timer_count;
 294               		.loc 1 90 5 is_stmt 1 view .LVU80
  90:./tmk_core/common/avr/timer.c ****       t = timer_count;
 295               		.loc 1 90 5 view .LVU81
 296               	.LBB45:
 297               	.LBI45:
  68:/usr/local/Cellar/avr-gcc@8/8.5.0_1/avr/include/util/atomic.h **** {
 298               		.loc 2 68 24 view .LVU82
 299               	.LBB46:
  70:/usr/local/Cellar/avr-gcc@8/8.5.0_1/avr/include/util/atomic.h ****     __asm__ volatile ("" ::: "memory");
 300               		.loc 2 70 5 view .LVU83
  70:/usr/local/Cellar/avr-gcc@8/8.5.0_1/avr/include/util/atomic.h ****     __asm__ volatile ("" ::: "memory");
 301               		.loc 2 70 10 is_stmt 0 view .LVU84
 302 0020 2FBF      		out __SREG__,r18
 303               		.loc 2 71 5 is_stmt 1 view .LVU85
 304               	.LVL16:
 305               		.loc 2 71 5 is_stmt 0 view .LVU86
 306               	.LBE46:
 307               	.LBE45:
 308               	.LBE42:
  92:./tmk_core/common/avr/timer.c ****     }
  93:./tmk_core/common/avr/timer.c **** 
  94:./tmk_core/common/avr/timer.c ****     return TIMER_DIFF_16((t & 0xFFFF), last);
 309               		.loc 1 94 5 is_stmt 1 view .LVU87
 310               		.loc 1 94 12 is_stmt 0 view .LVU88
 311 0022 6A01      		movw r12,r20
 312 0024 7B01      		movw r14,r22
 313 0026 EE24      		clr r14
 314 0028 FF24      		clr r15
 315 002a 8C01      		movw r16,r24
 316 002c 30E0      		ldi r19,0
 317 002e 20E0      		ldi r18,0
 318 0030 C016      		cp r12,r16
 319 0032 D106      		cpc r13,r17
 320 0034 E206      		cpc r14,r18
 321 0036 F306      		cpc r15,r19
 322 0038 00F0      		brlo .L6
 323               	.LVL17:
 324               	.L8:
 325               		.loc 1 94 12 discriminator 2 view .LVU89
 326 003a 481B      		sub r20,r24
 327 003c 590B      		sbc r21,r25
  95:./tmk_core/common/avr/timer.c **** }
 328               		.loc 1 95 1 discriminator 2 view .LVU90
 329 003e CA01      		movw r24,r20
 330               	.LVL18:
 331               	/* epilogue start */
 332               		.loc 1 95 1 discriminator 2 view .LVU91
 333 0040 1F91      		pop r17
 334 0042 0F91      		pop r16
 335               	.LVL19:
 336               		.loc 1 95 1 discriminator 2 view .LVU92
 337 0044 FF90      		pop r15
 338 0046 EF90      		pop r14
 339 0048 DF90      		pop r13
 340 004a CF90      		pop r12
 341 004c 0895      		ret
 342               	.LVL20:
 343               	.L6:
  94:./tmk_core/common/avr/timer.c **** }
 344               		.loc 1 94 12 discriminator 2 view .LVU93
 345 004e 4150      		subi r20,1
 346 0050 5109      		sbc r21,__zero_reg__
 347               	.LVL21:
  94:./tmk_core/common/avr/timer.c **** }
 348               		.loc 1 94 12 discriminator 2 view .LVU94
 349 0052 00C0      		rjmp .L8
 350               		.cfi_endproc
 351               	.LFE9:
 353               		.section	.text.timer_elapsed32,"ax",@progbits
 354               	.global	timer_elapsed32
 356               	timer_elapsed32:
 357               	.LVL22:
 358               	.LFB10:
  96:./tmk_core/common/avr/timer.c **** 
  97:./tmk_core/common/avr/timer.c **** inline
  98:./tmk_core/common/avr/timer.c **** uint32_t timer_elapsed32(uint32_t last)
  99:./tmk_core/common/avr/timer.c **** {
 359               		.loc 1 99 1 is_stmt 1 view -0
 360               		.cfi_startproc
 361               	/* prologue: function */
 362               	/* frame size = 0 */
 363               	/* stack size = 0 */
 364               	.L__stack_usage = 0
 365               		.loc 1 99 1 is_stmt 0 view .LVU96
 366 0000 AB01      		movw r20,r22
 367 0002 BC01      		movw r22,r24
 368               	.LVL23:
 100:./tmk_core/common/avr/timer.c ****     uint32_t t;
 369               		.loc 1 100 5 is_stmt 1 view .LVU97
 101:./tmk_core/common/avr/timer.c **** 
 102:./tmk_core/common/avr/timer.c ****     ATOMIC_BLOCK(ATOMIC_RESTORESTATE) {
 370               		.loc 1 102 5 view .LVU98
 371               	.LBB47:
 372               		.loc 1 102 5 view .LVU99
 373 0004 2FB7      		in r18,__SREG__
 374               	.LVL24:
 375               	.LBB48:
 376               	.LBI48:
  48:/usr/local/Cellar/avr-gcc@8/8.5.0_1/avr/include/util/atomic.h **** {
 377               		.loc 2 48 27 view .LVU100
 378               	.LBB49:
  50:/usr/local/Cellar/avr-gcc@8/8.5.0_1/avr/include/util/atomic.h ****     return 1;
 379               		.loc 2 50 5 view .LVU101
 380               	/* #APP */
 381               	 ;  50 "/usr/local/Cellar/avr-gcc@8/8.5.0_1/avr/include/util/atomic.h" 1
 382 0006 F894      		cli
 383               	 ;  0 "" 2
  51:/usr/local/Cellar/avr-gcc@8/8.5.0_1/avr/include/util/atomic.h **** }
 384               		.loc 2 51 5 view .LVU102
 385               	.LVL25:
  51:/usr/local/Cellar/avr-gcc@8/8.5.0_1/avr/include/util/atomic.h **** }
 386               		.loc 2 51 5 is_stmt 0 view .LVU103
 387               	/* #NOAPP */
 388               	.LBE49:
 389               	.LBE48:
 390               		.loc 1 102 5 is_stmt 1 view .LVU104
 103:./tmk_core/common/avr/timer.c ****       t = timer_count;
 391               		.loc 1 103 7 view .LVU105
 392               		.loc 1 103 9 is_stmt 0 view .LVU106
 393 0008 8091 0000 		lds r24,timer_count
 394 000c 9091 0000 		lds r25,timer_count+1
 395 0010 A091 0000 		lds r26,timer_count+2
 396 0014 B091 0000 		lds r27,timer_count+3
 397               	.LVL26:
 102:./tmk_core/common/avr/timer.c ****       t = timer_count;
 398               		.loc 1 102 5 is_stmt 1 view .LVU107
 102:./tmk_core/common/avr/timer.c ****       t = timer_count;
 399               		.loc 1 102 5 view .LVU108
 400               	.LBB50:
 401               	.LBI50:
  68:/usr/local/Cellar/avr-gcc@8/8.5.0_1/avr/include/util/atomic.h **** {
 402               		.loc 2 68 24 view .LVU109
 403               	.LBB51:
  70:/usr/local/Cellar/avr-gcc@8/8.5.0_1/avr/include/util/atomic.h ****     __asm__ volatile ("" ::: "memory");
 404               		.loc 2 70 5 view .LVU110
  70:/usr/local/Cellar/avr-gcc@8/8.5.0_1/avr/include/util/atomic.h ****     __asm__ volatile ("" ::: "memory");
 405               		.loc 2 70 10 is_stmt 0 view .LVU111
 406 0018 2FBF      		out __SREG__,r18
 407               		.loc 2 71 5 is_stmt 1 view .LVU112
 408               	.LVL27:
 409               		.loc 2 71 5 is_stmt 0 view .LVU113
 410               	.LBE51:
 411               	.LBE50:
 412               	.LBE47:
 104:./tmk_core/common/avr/timer.c ****     }
 105:./tmk_core/common/avr/timer.c **** 
 106:./tmk_core/common/avr/timer.c ****     return TIMER_DIFF_32(t, last);
 413               		.loc 1 106 5 is_stmt 1 view .LVU114
 414               		.loc 1 106 12 is_stmt 0 view .LVU115
 415 001a 8417      		cp r24,r20
 416 001c 9507      		cpc r25,r21
 417 001e A607      		cpc r26,r22
 418 0020 B707      		cpc r27,r23
 419 0022 00F0      		brlo .L10
 420               	.LVL28:
 421               	.L12:
 422               		.loc 1 106 12 discriminator 2 view .LVU116
 423 0024 841B      		sub r24,r20
 424 0026 950B      		sbc r25,r21
 425 0028 A60B      		sbc r26,r22
 426 002a B70B      		sbc r27,r23
 107:./tmk_core/common/avr/timer.c **** }
 427               		.loc 1 107 1 discriminator 2 view .LVU117
 428 002c BC01      		movw r22,r24
 429 002e CD01      		movw r24,r26
 430               	/* epilogue start */
 431 0030 0895      		ret
 432               	.LVL29:
 433               	.L10:
 106:./tmk_core/common/avr/timer.c **** }
 434               		.loc 1 106 12 discriminator 2 view .LVU118
 435 0032 0197      		sbiw r24,1
 436 0034 A109      		sbc r26,__zero_reg__
 437 0036 B109      		sbc r27,__zero_reg__
 438               	.LVL30:
 106:./tmk_core/common/avr/timer.c **** }
 439               		.loc 1 106 12 discriminator 2 view .LVU119
 440 0038 00C0      		rjmp .L12
 441               		.cfi_endproc
 442               	.LFE10:
 444               		.section	.text.__vector_21,"ax",@progbits
 445               	.global	__vector_21
 447               	__vector_21:
 448               	.LFB11:
 108:./tmk_core/common/avr/timer.c **** 
 109:./tmk_core/common/avr/timer.c **** // excecuted once per 1ms.(excess for just timer count?)
 110:./tmk_core/common/avr/timer.c **** ISR(TIMER0_COMPA_vect)
 111:./tmk_core/common/avr/timer.c **** {
 449               		.loc 1 111 1 is_stmt 1 view -0
 450               		.cfi_startproc
 451 0000 1F92 1FB6 		__gcc_isr 1
 451      1F92 1124 
 451      8F93 
 452 000a 9F93      		push r25
 453               	.LCFI6:
 454               		.cfi_def_cfa_offset 3
 455               		.cfi_offset 25, -2
 456 000c AF93      		push r26
 457               	.LCFI7:
 458               		.cfi_def_cfa_offset 4
 459               		.cfi_offset 26, -3
 460 000e BF93      		push r27
 461               	.LCFI8:
 462               		.cfi_def_cfa_offset 5
 463               		.cfi_offset 27, -4
 464               	/* prologue: Signal */
 465               	/* frame size = 0 */
 466               	/* stack size = 3...7 */
 467               	.L__stack_usage = 3 + __gcc_isr.n_pushed
 112:./tmk_core/common/avr/timer.c ****     timer_count++;
 468               		.loc 1 112 5 view .LVU121
 469               		.loc 1 112 16 is_stmt 0 view .LVU122
 470 0010 8091 0000 		lds r24,timer_count
 471 0014 9091 0000 		lds r25,timer_count+1
 472 0018 A091 0000 		lds r26,timer_count+2
 473 001c B091 0000 		lds r27,timer_count+3
 474 0020 0196      		adiw r24,1
 475 0022 A11D      		adc r26,__zero_reg__
 476 0024 B11D      		adc r27,__zero_reg__
 477 0026 8093 0000 		sts timer_count,r24
 478 002a 9093 0000 		sts timer_count+1,r25
 479 002e A093 0000 		sts timer_count+2,r26
 480 0032 B093 0000 		sts timer_count+3,r27
 481               	/* epilogue start */
 113:./tmk_core/common/avr/timer.c **** }
 482               		.loc 1 113 1 view .LVU123
 483 0036 BF91      		pop r27
 484 0038 AF91      		pop r26
 485 003a 9F91      		pop r25
 486 003c 8F91 1F90 		__gcc_isr 2
 486      1FBE 1F90 
 487 0044 1895      		reti
 488               		__gcc_isr 0,r24
 489               		.cfi_endproc
 490               	.LFE11:
 492               		.comm	timer_count,4,1
 493               		.text
 494               	.Letext0:
 495               		.file 3 "/usr/local/Cellar/avr-gcc@8/8.5.0_1/avr/include/stdint.h"
 496               		.file 4 "./tmk_core/common/timer.h"